
experiment_five.elf:     file format elf32-avr

Sections:
Idx Name          Size      VMA       LMA       File off  Algn
  0 .data         000000f0  00800100  00004200  00004294  2**0
                  CONTENTS, ALLOC, LOAD, DATA
  1 .text         00004200  00000000  00000000  00000094  2**1
                  CONTENTS, ALLOC, LOAD, READONLY, CODE
  2 .bss          0000047d  008001f0  008001f0  00004384  2**0
                  ALLOC
  3 .comment      0000005c  00000000  00000000  00004384  2**0
                  CONTENTS, READONLY
  4 .note.gnu.avr.deviceinfo 00000040  00000000  00000000  000043e0  2**2
                  CONTENTS, READONLY
  5 .debug_aranges 00000318  00000000  00000000  00004420  2**0
                  CONTENTS, READONLY, DEBUGGING
  6 .debug_info   000057fa  00000000  00000000  00004738  2**0
                  CONTENTS, READONLY, DEBUGGING
  7 .debug_abbrev 00001a0f  00000000  00000000  00009f32  2**0
                  CONTENTS, READONLY, DEBUGGING
  8 .debug_line   000028dc  00000000  00000000  0000b941  2**0
                  CONTENTS, READONLY, DEBUGGING
  9 .debug_frame  0000097c  00000000  00000000  0000e220  2**2
                  CONTENTS, READONLY, DEBUGGING
 10 .debug_str    00000f4b  00000000  00000000  0000eb9c  2**0
                  CONTENTS, READONLY, DEBUGGING
 11 .debug_loc    00003e2d  00000000  00000000  0000fae7  2**0
                  CONTENTS, READONLY, DEBUGGING
 12 .debug_ranges 00000200  00000000  00000000  00013914  2**0
                  CONTENTS, READONLY, DEBUGGING

Disassembly of section .text:

00000000 <__vectors>:
       0:	0c 94 a9 09 	jmp	0x1352	; 0x1352 <__ctors_end>
       4:	0c 94 c6 09 	jmp	0x138c	; 0x138c <__bad_interrupt>
       8:	0c 94 c6 09 	jmp	0x138c	; 0x138c <__bad_interrupt>
       c:	0c 94 c6 09 	jmp	0x138c	; 0x138c <__bad_interrupt>
      10:	0c 94 c6 09 	jmp	0x138c	; 0x138c <__bad_interrupt>
      14:	0c 94 c6 09 	jmp	0x138c	; 0x138c <__bad_interrupt>
      18:	0c 94 c6 09 	jmp	0x138c	; 0x138c <__bad_interrupt>
      1c:	0c 94 c6 09 	jmp	0x138c	; 0x138c <__bad_interrupt>
      20:	0c 94 c6 09 	jmp	0x138c	; 0x138c <__bad_interrupt>
      24:	0c 94 aa 13 	jmp	0x2754	; 0x2754 <__vector_9>
      28:	0c 94 c6 09 	jmp	0x138c	; 0x138c <__bad_interrupt>
      2c:	0c 94 c6 09 	jmp	0x138c	; 0x138c <__bad_interrupt>
      30:	0c 94 c6 09 	jmp	0x138c	; 0x138c <__bad_interrupt>
      34:	0c 94 c6 09 	jmp	0x138c	; 0x138c <__bad_interrupt>
      38:	0c 94 c6 09 	jmp	0x138c	; 0x138c <__bad_interrupt>
      3c:	0c 94 c6 09 	jmp	0x138c	; 0x138c <__bad_interrupt>
      40:	0c 94 c6 09 	jmp	0x138c	; 0x138c <__bad_interrupt>
      44:	0c 94 c6 09 	jmp	0x138c	; 0x138c <__bad_interrupt>
      48:	0c 94 c6 09 	jmp	0x138c	; 0x138c <__bad_interrupt>
      4c:	0c 94 c6 09 	jmp	0x138c	; 0x138c <__bad_interrupt>
      50:	0c 94 c6 09 	jmp	0x138c	; 0x138c <__bad_interrupt>
      54:	0c 94 c6 09 	jmp	0x138c	; 0x138c <__bad_interrupt>
      58:	0c 94 c6 09 	jmp	0x138c	; 0x138c <__bad_interrupt>
      5c:	0c 94 c6 09 	jmp	0x138c	; 0x138c <__bad_interrupt>
      60:	0c 94 c6 09 	jmp	0x138c	; 0x138c <__bad_interrupt>
      64:	0c 94 c6 09 	jmp	0x138c	; 0x138c <__bad_interrupt>
      68:	0c 94 c6 09 	jmp	0x138c	; 0x138c <__bad_interrupt>
      6c:	0c 94 c6 09 	jmp	0x138c	; 0x138c <__bad_interrupt>
      70:	0c 94 c6 09 	jmp	0x138c	; 0x138c <__bad_interrupt>
      74:	0c 94 c6 09 	jmp	0x138c	; 0x138c <__bad_interrupt>
      78:	0c 94 c6 09 	jmp	0x138c	; 0x138c <__bad_interrupt>
      7c:	0c 94 c6 09 	jmp	0x138c	; 0x138c <__bad_interrupt>
      80:	0c 94 c6 09 	jmp	0x138c	; 0x138c <__bad_interrupt>
      84:	0c 94 c6 09 	jmp	0x138c	; 0x138c <__bad_interrupt>
      88:	0c 94 c6 09 	jmp	0x138c	; 0x138c <__bad_interrupt>
      8c:	0c 94 c6 09 	jmp	0x138c	; 0x138c <__bad_interrupt>
      90:	0c 94 c6 09 	jmp	0x138c	; 0x138c <__bad_interrupt>
      94:	0c 94 c6 09 	jmp	0x138c	; 0x138c <__bad_interrupt>
      98:	0c 94 c6 09 	jmp	0x138c	; 0x138c <__bad_interrupt>
      9c:	0c 94 c6 09 	jmp	0x138c	; 0x138c <__bad_interrupt>
      a0:	0c 94 c6 09 	jmp	0x138c	; 0x138c <__bad_interrupt>
      a4:	0c 94 c6 09 	jmp	0x138c	; 0x138c <__bad_interrupt>
      a8:	0c 94 c6 09 	jmp	0x138c	; 0x138c <__bad_interrupt>
      ac:	0c 94 c6 09 	jmp	0x138c	; 0x138c <__bad_interrupt>
      b0:	0c 94 c6 09 	jmp	0x138c	; 0x138c <__bad_interrupt>
      b4:	0c 94 c6 09 	jmp	0x138c	; 0x138c <__bad_interrupt>
      b8:	0c 94 c6 09 	jmp	0x138c	; 0x138c <__bad_interrupt>
      bc:	0c 94 c6 09 	jmp	0x138c	; 0x138c <__bad_interrupt>
      c0:	0c 94 c6 09 	jmp	0x138c	; 0x138c <__bad_interrupt>
      c4:	0c 94 c6 09 	jmp	0x138c	; 0x138c <__bad_interrupt>
      c8:	0c 94 c6 09 	jmp	0x138c	; 0x138c <__bad_interrupt>

000000cc <CONFIG2>:
      cc:	3a 00 64 3a 65 bb 08 3a 09 bb 50 10 52 67 51 77     :.d:e..:..P.RgQw
      dc:	05 a1 18 04 54 01 55 21 07 00 06 0c 0b 03 50 10     ....T.U!......P.
      ec:	51 00 52 04 61 0f 64 55 65 55 05 a1 18 04 ff ff     Q.R.a.dUeU......
      fc:	ff ff                                               ..

000000fe <CONFIG>:
      fe:	3a 01 2a 04 28 00 29 00 20 00 21 00 22 00 23 00     :.*.(.). .!.".#.
     10e:	24 00 25 00 26 00 27 00 28 01 28 02 21 8f 28 03     $.%.&.'.(.(.!.(.
     11e:	21 00 28 04 28 05 28 06 28 07 28 08 28 09 28 0a     !.(.(.(.(.(.(.(.
     12e:	28 0b 28 0c 20 80 21 90 28 0d 20 00 21 00 28 0e     (.(. .!.(. .!.(.
     13e:	20 81 21 91 28 0f 20 00 21 92 28 10 21 00 28 11      .!.(. .!.(.!.(.
     14e:	21 93 28 12 21 00 28 13 28 14 28 15 20 82 28 16     !.(.!.(.(.(. .(.
     15e:	20 00 28 17 28 18 28 19 21 94 28 1a 21 95 28 1b      .(.(.(.!.(.!.(.
     16e:	21 96 28 1c 21 00 28 1d 20 83 28 1e 20 00 28 1f     !.(.!.(. .(. .(.
     17e:	21 97 28 20 21 00 28 21 28 22 28 23 28 24 28 25     !.( !.(!("(#($(%
     18e:	28 26 28 27 28 28 28 29 28 2a 20 84 28 2b 20 00     (&('((()(* .(+ .
     19e:	28 2c 28 2d 28 2e 28 2f 28 30 28 31 28 32 20 85     (,(-(.(/(0(1(2 .
     1ae:	28 33 20 00 28 34 28 35 28 36 28 37 21 98 28 38     (3 .(4(5(6(7!.(8
     1be:	21 00 28 39 28 3a 28 3b 28 3c 28 3d 28 3e 28 3f     !.(9(:(;(<(=(>(?
     1ce:	28 40 28 41 28 42 28 43 28 44 28 45 28 46 28 47     (@(A(B(C(D(E(F(G
     1de:	28 48 28 49 28 4a 28 4b 28 4c 28 4d 28 4e 28 4f     (H(I(J(K(L(M(N(O
     1ee:	28 50 28 51 28 52 28 53 28 54 28 55 28 56 28 57     (P(Q(R(S(T(U(V(W
     1fe:	28 58 28 59 28 5a 28 5b 28 5c 28 5d 28 5e 28 5f     (X(Y(Z([(\(](^(_
     20e:	28 60 28 61 28 62 21 99 28 63 21 00 28 64 28 65     (`(a(b!.(c!.(d(e
     21e:	28 66 28 67 28 68 28 69 28 6a 28 6b 28 6c 28 6d     (f(g(h(i(j(k(l(m
     22e:	28 6e 28 6f 28 70 28 71 28 72 28 73 28 74 28 75     (n(o(p(q(r(s(t(u
     23e:	28 76 28 77 28 78 28 79 28 7a 28 7b 28 7c 28 7d     (v(w(x(y(z({(|(}
     24e:	28 7e 28 7f 28 80 28 81 28 82 28 83 28 84 28 85     (~(.(.(.(.(.(.(.
     25e:	28 86 28 87 28 88 28 89 28 8a 28 8b 28 8c 28 8d     (.(.(.(.(.(.(.(.
     26e:	28 8e 28 8f 28 90 28 91 20 86 28 92 20 87 28 93     (.(.(.(. .(. .(.
     27e:	20 00 28 94 28 95 28 96 28 97 28 98 28 99 28 9a      .(.(.(.(.(.(.(.
     28e:	28 9b 28 9c 28 9d 28 9e 28 9f 21 9a 28 a0 21 00     (.(.(.(.(.!.(.!.
     29e:	28 a1 28 a2 28 a3 28 a4 28 a5 28 a6 28 a7 28 a8     (.(.(.(.(.(.(.(.
     2ae:	28 a9 28 aa 28 ab 28 ac 28 ad 28 ae 28 af 28 b0     (.(.(.(.(.(.(.(.
     2be:	28 b1 28 b2 28 b3 28 b4 28 b5 28 b6 28 b7 28 b8     (.(.(.(.(.(.(.(.
     2ce:	28 b9 20 88 28 ba 20 00 28 bb 20 89 28 bc 20 00     (. .(. .(. .(. .
     2de:	28 bd 28 be 28 bf 28 c0 28 c1 28 c2 28 c3 21 9b     (.(.(.(.(.(.(.!.
     2ee:	28 c4 21 00 28 c5 28 c6 28 c7 28 c8 28 c9 28 ca     (.!.(.(.(.(.(.(.
     2fe:	28 cb 28 cc 28 cd 28 ce 28 cf 28 d0 28 d1 28 d2     (.(.(.(.(.(.(.(.
     30e:	28 d3 28 d4 28 d5 28 d6 28 d7 28 d8 28 d9 28 da     (.(.(.(.(.(.(.(.
     31e:	28 db 28 dc 28 dd 28 de 28 df 28 e0 28 e1 20 8a     (.(.(.(.(.(.(. .
     32e:	28 e2 20 8b 28 e3 20 00 28 e4 28 e5 28 e6 28 e7     (. .(. .(.(.(.(.
     33e:	28 e8 28 e9 28 ea 28 eb 28 ec 28 ed 28 ee 28 ef     (.(.(.(.(.(.(.(.
     34e:	28 f0 28 f1 28 f2 28 f3 28 f4 28 f5 28 f6 28 f7     (.(.(.(.(.(.(.(.
     35e:	28 f8 20 8c 28 f9 20 00 21 9c 28 fa 21 9d 28 fb     (. .(. .!.(.!.(.
     36e:	20 8d 21 9e 28 fc 20 8e 21 9f 28 fd 20 00 21 00      .!.(. .!.(. .!.
     37e:	28 fe 28 ff 2a 01 28 00 22 01 23 95 24 89 25 07     (.(.*.(.".#.$.%.
     38e:	26 a4 27 07 28 01 21 c7 22 00 23 80 26 c4 27 0c     &.'.(.!.".#.&.'.
     39e:	28 02 20 09 21 1c 22 04 26 aa 27 0a 28 03 20 00     (. .!.".&.'.(. .
     3ae:	21 00 22 00 23 a6 26 a0 27 07 28 04 28 05 20 05     !.".#.&.'.(.(. .
     3be:	23 84 26 b4 27 09 28 06 20 00 22 03 23 00 24 81     #.&.'.(. .".#.$.
     3ce:	25 c0 26 ab 27 0a 28 07 21 ae 22 00 23 95 24 89     %.&.'.(.!.".#.$.
     3de:	25 07 26 a4 27 00 28 08 21 48 22 01 23 80 26 c4     %.&.'.(.!H".#.&.
     3ee:	27 0c 28 09 20 09 21 04 22 04 26 aa 27 0a 28 0a     '.(. .!.".&.'.(.
     3fe:	20 00 21 00 22 00 23 a8 26 a4 27 07 28 0b 28 0c      .!.".#.&.'.(.(.
     40e:	21 40 22 20 23 80 26 c4 27 0c 28 0d 22 24 26 c6     !@" #.&.'.(."$&.
     41e:	28 0e 21 9e 22 00 26 c8 28 0f 20 09 21 02 22 14     (.!.".&.(. .!.".
     42e:	26 aa 27 0a 28 10 20 05 21 00 22 00 23 84 26 b4     &.'.(. .!.".#.&.
     43e:	27 09 28 11 20 00 21 01 23 00 24 01 25 c0 26 ab     '.(. .!.#.$.%.&.
     44e:	27 0a 28 12 21 c3 23 95 24 89 25 07 26 20 27 00     '.(.!.#.$.%.& '.
     45e:	28 13 20 03 21 c2 23 83 26 26 27 0d 28 14 21 b3     (. .!.#.&&'.(.!.
     46e:	22 08 28 15 20 00 21 c6 22 00 23 95 26 00 27 08     ".(. .!.".#.&.'.
     47e:	28 16 21 00 23 00 24 96 25 03 26 aa 27 0a 28 17     (.!.#.$.%.&.'.(.
     48e:	20 42 21 b6 23 80 24 89 25 07 28 18 20 00 21 00      B!.#.$.%.(. .!.
     49e:	23 94 26 0e 28 19 20 0f 23 84 26 b4 27 09 28 1a     #.&.(. .#.&.'.(.
     4ae:	20 00 23 93 26 a8 27 03 28 1b 26 28 27 00 28 1c      .#.&.'.(.&('.(.
     4be:	21 01 23 00 24 01 25 c0 26 ab 27 0a 28 1d 21 c5     !.#.$.%.&.'.(.!.
     4ce:	23 95 24 89 25 07 26 20 27 00 28 1e 21 00 23 94     #.$.%.& '.(.!.#.
     4de:	26 00 27 0a 28 1f 26 0e 28 20 20 03 21 79 22 01     &.'.(.&.(  .!y".
     4ee:	23 83 26 26 27 0d 28 21 21 32 28 22 20 00 21 04     #.&&'.(!!2(" .!.
     4fe:	22 00 23 80 24 00 25 fc 26 aa 27 0a 28 23 21 00     ".#.$.%.&.'.(#!.
     50e:	23 00 25 00 28 24 21 a3 22 0d 23 80 24 9e 25 3b     #.%.($!.".#.$.%;
     51e:	28 25 20 42 21 57 22 01 24 89 25 07 28 26 20 00     (% B!W".$.%.(& .
     52e:	21 43 22 0d 24 00 25 38 28 27 21 08 22 98 23 95     !C".$.%8('!.".#.
     53e:	24 89 25 07 26 24 27 00 28 28 20 42 21 93 22 01     $.%.&$'.(( B!.".
     54e:	23 80 26 aa 27 0a 28 29 20 03 21 7e 22 04 23 83     #.&.'.() .!~".#.
     55e:	26 26 27 0d 28 2a 20 00 21 b0 22 00 23 95 26 a0     &&'.(* .!.".#.&.
     56e:	27 07 28 2b 21 00 23 00 24 0c 25 04 26 aa 27 0a     '.(+!.#.$.%.&.'.
     57e:	28 2c 21 02 23 80 24 86 25 c3 26 ab 28 2d 20 42     (,!.#.$.%.&.(- B
     58e:	21 97 22 01 24 89 25 07 26 aa 28 2e 20 00 21 00     !.".$.%.&.(. .!.
     59e:	22 00 24 1f 25 04 28 2f 21 b2 23 95 24 89 25 07     ".$.%.(/!.#.$.%.
     5ae:	26 20 27 04 28 30 20 42 21 8b 22 04 23 80 26 aa     & '.(0 B!.".#.&.
     5be:	27 0a 28 31 20 00 21 b1 22 00 23 95 26 a0 27 07     '.(1 .!.".#.&.'.
     5ce:	28 32 20 03 21 75 22 04 23 83 26 26 27 0d 28 33     (2 .!u".#.&&'.(3
     5de:	20 05 21 00 22 00 23 84 26 b4 27 09 28 34 20 00      .!.".#.&.'.(4 .
     5ee:	21 60 23 00 24 01 25 c0 26 ab 27 0a 28 35 21 08     !`#.$.%.&.'.(5!.
     5fe:	22 98 23 95 24 89 25 07 26 24 27 00 28 36 21 bc     ".#.$.%.&$'.(6!.
     60e:	22 00 28 37 21 a3 22 0d 23 00 24 01 25 c0 26 ab     ".(7!.".#.$.%.&.
     61e:	27 0a 28 38 21 60 22 00 23 80 24 00 25 38 26 aa     '.(8!`".#.$.%8&.
     62e:	28 39 21 06 22 98 23 95 24 89 25 07 26 24 27 00     (9!.".#.$.%.&$'.
     63e:	28 3a 21 be 22 00 28 3b 20 05 21 00 23 84 26 b4     (:!.".(; .!.#.&.
     64e:	27 09 28 3c 20 00 21 60 23 00 24 01 25 c0 26 ab     '.(< .!`#.$.%.&.
     65e:	27 0a 28 3d 21 42 22 01 23 95 24 89 25 07 26 24     '.(=!B".#.$.%.&$
     66e:	27 00 28 3e 21 0c 22 98 26 a4 27 07 28 3f 21 08     '.(>!.".&.'.(?!.
     67e:	28 40 21 60 22 00 23 00 24 01 25 c0 26 ab 27 0a     (@!`".#.$.%.&.'.
     68e:	28 41 21 0c 22 98 23 95 24 89 25 07 26 24 27 00     (A!.".#.$.%.&$'.
     69e:	28 42 20 05 21 00 22 00 23 84 26 b4 27 09 28 43     (B .!.".#.&.'.(C
     6ae:	20 00 23 80 24 00 25 10 26 ab 27 0a 28 44 21 22      .#.$.%.&.'.(D!"
     6be:	22 01 23 95 24 89 25 07 26 24 27 00 28 45 21 00     ".#.$.%.&$'.(E!.
     6ce:	22 00 23 00 24 04 25 12 26 aa 27 0a 28 46 20 03     ".#.$.%.&.'.(F .
     6de:	21 d4 22 05 23 83 24 89 25 07 26 26 27 0d 28 47     !.".#.$.%.&&'.(G
     6ee:	20 00 21 60 22 00 23 00 24 01 25 c0 26 ab 27 0a      .!`".#.$.%.&.'.
     6fe:	28 48 21 b3 23 95 24 89 25 07 26 00 27 08 28 49     (H!.#.$.%.&.'.(I
     70e:	21 00 23 00 24 09 25 00 26 aa 27 0a 28 4a 21 02     !.#.$.%.&.'.(J!.
     71e:	23 80 24 86 25 3b 28 4b 20 42 21 dd 22 05 24 89     #.$.%;(K B!.".$.
     72e:	25 07 28 4c 20 00 21 00 22 00 24 1f 25 00 28 4d     %.(L .!.".$.%.(M
     73e:	21 b3 23 95 24 89 25 07 26 20 27 00 28 4e 21 00     !.#.$.%.& '.(N!.
     74e:	23 00 24 97 25 03 26 aa 27 0a 28 4f 20 42 21 e2     #.$.%.&.'.(O B!.
     75e:	22 05 23 80 24 89 25 07 28 50 20 00 21 10 22 00     ".#.$.%.(P .!.".
     76e:	23 00 24 80 25 cc 26 ab 28 51 21 00 22 40 23 b4     #.$.%.&.(Q!."@#.
     77e:	24 89 25 07 26 aa 27 04 28 52 22 00 23 b0 26 92     $.%.&.'.(R".#.&.
     78e:	27 09 28 53 21 14 22 01 23 95 26 00 27 08 28 54     '.(S!.".#.&.'.(T
     79e:	21 48 23 a4 26 2a 27 00 28 55 21 00 22 00 23 00     !H#.&*'.(U!.".#.
     7ae:	24 09 25 00 26 aa 27 0a 28 56 21 08 23 80 24 86     $.%.&.'.(V!.#.$.
     7be:	25 3b 28 57 20 42 21 11 22 07 24 89 25 07 28 58     %;(W B!.".$.%.(X
     7ce:	20 00 21 00 22 00 24 1f 25 00 28 59 21 14 22 01      .!.".$.%.(Y!.".
     7de:	23 95 24 89 25 07 26 20 27 00 28 5a 21 16 26 02     #.$.%.& '.(Z!.&.
     7ee:	27 09 28 5b 21 00 22 00 23 00 24 80 25 48 26 aa     '.([!.".#.$.%H&.
     7fe:	27 0a 28 5c 23 a0 24 89 25 07 26 14 27 09 28 5d     '.(\#.$.%.&.'.(]
     80e:	24 80 25 50 26 a4 27 04 28 5e 21 16 22 01 23 95     $.%P&.'.(^!.".#.
     81e:	24 89 25 07 27 00 28 5f 21 04 22 00 23 00 24 9c     $.%.'.(_!.".#.$.
     82e:	25 78 26 aa 27 0a 28 60 21 43 22 0d 24 01 25 c4     %x&.'.(`!C".$.%.
     83e:	26 ab 28 61 21 03 22 00 24 15 28 62 21 00 24 00     &.(a!.".$.(b!.$.
     84e:	25 00 26 aa 28 63 21 5e 23 95 24 89 25 07 26 10     %.&.(c!^#.$.%.&.
     85e:	27 09 28 64 21 03 23 00 24 15 25 c4 26 ab 27 0a     '.(d!.#.$.%.&.'.
     86e:	28 65 21 00 23 80 24 00 25 06 26 aa 28 66 24 8f     (e!.#.$.%.&.(f$.
     87e:	25 e3 26 ab 28 67 20 42 21 cd 22 07 24 89 25 07     %.&.(g B!.".$.%.
     88e:	26 aa 28 68 20 00 21 60 22 00 23 00 24 01 25 c0     &.(h .!`".#.$.%.
     89e:	26 ab 28 69 21 00 23 80 24 8f 25 03 26 aa 28 6a     &.(i!.#.$.%.&.(j
     8ae:	20 42 21 dd 22 07 24 89 25 07 28 6b 20 00 21 43      B!.".$.%.(k .!C
     8be:	22 0d 23 00 24 01 25 c0 26 ab 28 6c 21 00 22 00     ".#.$.%.&.(l!.".
     8ce:	24 00 25 04 26 aa 28 6d 20 03 21 7f 22 01 23 83     $.%.&.(m .!.".#.
     8de:	24 89 25 07 26 26 27 0d 28 6e 21 62 28 6f 20 05     $.%.&&'.(n!b(o .
     8ee:	21 00 22 00 23 84 26 b4 27 09 28 70 20 00 21 06     !.".#.&.'.(p .!.
     8fe:	23 95 26 00 27 08 28 71 21 01 23 00 24 97 25 3b     #.&.'.(q!.#.$.%;
     90e:	26 aa 27 0a 28 72 20 42 21 0e 22 08 23 80 24 89     &.'.(r B!.".#.$.
     91e:	25 07 28 73 20 03 21 3c 22 0b 23 83 26 26 27 0d     %.(s .!<".#.&&'.
     92e:	28 74 20 00 21 03 22 00 23 95 26 02 27 08 28 75     (t .!.".#.&.'.(u
     93e:	21 27 23 00 24 81 25 c4 26 ab 27 0a 28 76 21 00     !'#.$.%.&.'.(v!.
     94e:	23 80 24 09 25 48 26 aa 28 77 21 58 22 34 23 a3     #.$.%H&.(w!X"4#.
     95e:	24 89 25 07 26 2a 27 00 28 78 21 00 22 00 23 a0     $.%.&*'.(x!.".#.
     96e:	26 00 27 09 28 79 21 07 23 80 24 03 25 39 26 aa     &.'.(y!.#.$.%9&.
     97e:	27 0a 28 7a 21 04 23 00 24 1c 25 38 28 7b 21 07     '.(z!.#.$.%8({!.
     98e:	23 80 24 83 25 39 28 7c 21 03 23 95 24 89 25 07     #.$.%9(|!.#.$.%.
     99e:	26 02 27 08 28 7d 21 27 23 00 24 81 25 c4 26 ab     &.'.(}!'#.$.%.&.
     9ae:	27 0a 28 7e 21 00 23 80 24 09 25 48 26 aa 28 7f     '.(~!.#.$.%H&.(.
     9be:	21 58 22 34 23 a3 24 89 25 07 26 2a 27 00 28 80     !X"4#.$.%.&*'.(.
     9ce:	21 06 22 00 23 00 24 81 25 c0 26 93 27 01 28 81     !.".#.$.%.&.'.(.
     9de:	21 00 23 80 24 89 25 48 26 aa 27 0a 28 82 20 02     !.#.$.%H&.'.(. .
     9ee:	21 66 22 08 23 00 24 00 25 66 28 83 20 00 21 00     !f".#.$.%f(. .!.
     9fe:	22 00 23 80 24 1f 25 02 28 84 21 06 24 89 25 07     ".#.$.%.(.!.$.%.
     a0e:	26 dc 27 0c 28 85 21 00 23 aa 26 aa 27 0a 28 86     &.'.(.!.#.&.'.(.
     a1e:	23 b6 26 00 27 08 28 87 23 80 24 86 25 3b 26 aa     #.&.'.(.#.$.%;&.
     a2e:	27 0a 28 88 21 05 24 89 25 07 26 dc 27 0c 28 89     '.(.!.$.%.&.'.(.
     a3e:	21 00 23 aa 26 aa 27 0a 28 8a 23 b6 26 00 27 08     !.#.&.'.(.#.&.'.
     a4e:	28 8b 23 80 24 86 25 3b 26 aa 27 0a 28 8c 20 42     (.#.$.%;&.'.(. B
     a5e:	21 7b 22 08 24 89 25 07 28 8d 20 00 21 00 22 00     !{".$.%.(. .!.".
     a6e:	23 00 24 01 25 82 28 8e 21 05 24 81 25 c2 26 ab     #.$.%.(.!.$.%.&.
     a7e:	28 8f 20 03 21 93 22 08 23 83 24 89 25 07 26 26     (. .!.".#.$.%.&&
     a8e:	27 0d 28 90 20 00 21 05 22 00 23 00 24 81 25 c0     '.(. .!.".#.$.%.
     a9e:	26 13 27 01 28 91 21 00 23 80 24 89 25 48 26 aa     &.'.(.!.#.$.%H&.
     aae:	27 0a 28 92 20 02 21 7e 22 08 23 00 24 00 25 66     '.(. .!~".#.$.%f
     abe:	28 93 20 00 21 00 22 00 23 80 24 1f 25 02 28 94     (. .!.".#.$.%.(.
     ace:	21 05 24 89 25 07 26 dc 27 0c 28 95 21 00 23 aa     !.$.%.&.'.(.!.#.
     ade:	26 aa 27 0a 28 96 23 b6 26 00 27 08 28 97 23 80     &.'.(.#.&.'.(.#.
     aee:	24 86 25 3b 26 aa 27 0a 28 98 21 05 24 89 25 07     $.%;&.'.(.!.$.%.
     afe:	26 dc 27 0c 28 99 21 00 23 aa 26 aa 27 0a 28 9a     &.'.(.!.#.&.'.(.
     b0e:	23 80 24 1f 25 02 28 9b 21 01 23 00 24 81 25 c2     #.$.%.(.!.#.$.%.
     b1e:	26 ab 28 9c 20 03 21 93 22 08 23 83 24 89 25 07     &.(. .!.".#.$.%.
     b2e:	26 26 27 0d 28 9d 20 00 21 04 22 00 23 95 26 12     &&'.(. .!.".#.&.
     b3e:	27 08 28 9e 21 60 23 c4 26 aa 27 04 28 9f 21 00     '.(.!`#.&.'.(.!.
     b4e:	23 c0 26 00 27 09 28 a0 20 42 21 cb 22 08 23 80     #.&.'.(. B!.".#.
     b5e:	26 aa 27 0a 28 a1 20 70 21 54 22 b8 23 95 26 12     &.'.(. p!T".#.&.
     b6e:	27 08 28 a2 20 02 21 cc 22 08 23 80 26 aa 27 0a     '.(. .!.".#.&.'.
     b7e:	28 a3 20 03 21 ca 22 0f 23 83 26 26 27 0d 28 a4     (. .!.".#.&&'.(.
     b8e:	20 00 21 00 22 00 23 00 24 8c 25 0c 26 aa 27 0a      .!.".#.$.%.&.'.
     b9e:	28 a5 21 04 24 82 25 78 28 a6 21 00 23 80 24 89     (.!.$.%x(.!.#.$.
     bae:	25 48 26 12 27 04 28 a7 20 03 21 de 22 0f 23 83     %H&.'.(. .!.".#.
     bbe:	25 07 26 26 27 0d 28 a8 20 00 21 01 22 00 23 00     %.&&'.(. .!.".#.
     bce:	24 9c 25 78 26 aa 27 0a 28 a9 21 00 23 80 24 81     $.%x&.'.(.!.#.$.
     bde:	25 40 28 aa 20 03 21 cf 22 0f 23 83 24 89 25 07     %@(. .!.".#.$.%.
     bee:	26 26 27 0d 28 ab 20 70 21 08 22 b8 23 95 26 a0     &&'.(. p!.".#.&.
     bfe:	27 04 28 ac 20 03 21 d4 22 0f 23 83 26 26 27 0d     '.(. .!.".#.&&'.
     c0e:	28 ad 21 27 22 0b 28 ae 20 70 21 63 22 b8 23 95     (.!'".(. p!c".#.
     c1e:	26 12 27 08 28 af 20 00 21 01 22 00 23 80 24 86     &.'.(. .!.".#.$.
     c2e:	25 cb 26 ab 27 0a 28 b0 20 42 21 dd 22 08 24 89     %.&.'.(. B!.".$.
     c3e:	25 07 26 aa 28 b1 20 00 21 18 22 80 23 95 26 a4     %.&.(. .!.".#.&.
     c4e:	27 00 28 b2 20 03 21 d9 22 0f 23 83 26 26 27 0d     '.(. .!.".#.&&'.
     c5e:	28 b3 20 70 21 0a 22 b8 23 95 26 a0 27 00 28 b4     (. p!.".#.&.'.(.
     c6e:	20 02 21 e0 22 08 23 80 26 aa 27 0a 28 b5 20 70      .!.".#.&.'.(. p
     c7e:	21 0a 22 b8 23 95 26 a0 27 00 28 b6 21 54 26 02     !.".#.&.'.(.!T&.
     c8e:	27 08 28 b7 20 00 21 18 22 80 26 a4 27 00 28 b8     '.(. .!.".&.'.(.
     c9e:	21 00 22 00 23 80 24 80 25 48 26 aa 27 0a 28 b9     !.".#.$.%H&.'.(.
     cae:	20 70 21 5e 22 b8 23 95 24 89 25 07 26 12 27 08      p!^".#.$.%.&.'.
     cbe:	28 ba 20 00 21 00 22 00 23 80 24 09 25 4b 26 aa     (. .!.".#.$.%K&.
     cce:	27 0a 28 bb 20 70 21 5f 22 b8 23 95 24 89 25 07     '.(. p!_".#.$.%.
     cde:	26 10 27 08 28 bc 20 00 21 00 22 00 23 00 24 1c     &.'.(. .!.".#.$.
     cee:	25 83 26 ab 27 0a 28 bd 20 03 21 32 22 09 23 83     %.&.'.(. .!2".#.
     cfe:	24 89 25 07 26 26 27 0d 28 be 20 00 21 00 22 00     $.%.&&'.(. .!.".
     d0e:	23 00 24 82 25 8c 26 ab 27 0a 28 bf 20 03 21 25     #.$.%.&.'.(. .!%
     d1e:	22 09 23 83 24 89 25 07 26 26 27 0d 28 c0 20 42     ".#.$.%.&&'.(. B
     d2e:	21 bc 23 80 26 aa 27 0a 28 c1 20 00 21 01 22 00     !.#.&.'.(. .!.".
     d3e:	23 00 24 01 25 c0 26 ab 28 c2 20 70 21 0f 22 b8     #.$.%.&.(. p!.".
     d4e:	23 95 24 89 25 07 26 20 27 00 28 c3 20 03 21 e3     #.$.%.& '.(. .!.
     d5e:	22 0f 23 83 26 26 27 0d 28 c4 20 05 21 00 22 00     ".#.&&'.(. .!.".
     d6e:	23 84 26 b4 27 09 28 c5 20 00 21 03 23 95 26 14     #.&.'.(. .!.#.&.
     d7e:	27 08 28 c6 21 a6 23 a4 26 2a 27 05 28 c7 21 00     '.(.!.#.&*'.(.!.
     d8e:	23 a0 26 44 27 09 28 c8 21 18 22 6d 23 80 24 9e     #.&D'.(.!."m#.$.
     d9e:	25 7b 26 aa 27 0a 28 c9 20 42 21 13 22 0b 24 89     %{&.'.(. B!.".$.
     dae:	25 07 28 ca 20 00 21 ae 22 00 23 95 26 24 27 00     %.(. .!.".#.&$'.
     dbe:	28 cb 21 00 22 03 23 80 24 87 25 7b 26 aa 27 0a     (.!.".#.$.%{&.'.
     dce:	28 cc 20 42 21 16 22 0b 24 89 25 07 28 cd 20 00     (. B!.".$.%.(. .
     dde:	21 ae 22 00 23 95 26 24 27 00 28 ce 20 05 21 00     !.".#.&$'.(. .!.
     dee:	23 84 26 b4 27 09 28 cf 20 03 21 0d 22 0b 23 83     #.&.'.(. .!.".#.
     dfe:	26 26 27 0d 28 d0 20 00 21 00 22 00 23 00 24 80     &&'.(. .!.".#.$.
     e0e:	26 02 27 00 28 d1 23 80 24 09 25 48 26 1e 28 d2     &.'.(.#.$.%H&.(.
     e1e:	21 58 22 34 23 33 24 80 25 07 26 2a 28 d3 21 00     !X"4#3$.%.&*(.!.
     e2e:	22 00 23 00 26 80 27 10 28 d4 21 10 23 63 26 2a     ".#.&.'.(.!.#c&*
     e3e:	27 00 28 d5 21 00 23 60 26 a8 27 12 28 d6 21 af     '.(.!.#`&.'.(.!.
     e4e:	22 4c 23 00 26 c8 27 0c 28 d7 21 00 22 00 26 80     "L#.&.'.(.!.".&.
     e5e:	27 05 28 d8 23 80 24 86 25 3b 26 1e 27 00 28 d9     '.(.#.$.%;&.'.(.
     e6e:	20 42 21 1c 22 0e 23 00 24 80 25 07 28 da 20 00      B!.".#.$.%.(. .
     e7e:	21 35 22 29 26 c4 27 0c 28 db 20 02 21 1d 22 0e     !5")&.'.(. .!.".
     e8e:	26 1e 27 00 28 dc 20 00 21 7f 22 34 26 c4 27 0c     &.'.(. .!."4&.'.
     e9e:	28 dd 21 00 22 00 23 90 24 9f 25 04 26 10 27 0a     (.!.".#.$.%.&.'.
     eae:	28 de 23 00 24 84 25 00 26 80 27 10 28 df 21 06     (.#.$.%.&.'.(.!.
     ebe:	23 63 24 80 25 07 26 2a 27 00 28 e0 21 00 23 80     #c$.%.&*'.(.!.#.
     ece:	24 89 26 aa 27 0a 28 e1 20 05 23 84 26 b4 27 09     $.&.'.(. .#.&.'.
     ede:	28 e2 20 70 21 61 22 b8 23 95 26 12 27 08 28 e3     (. p!a".#.&.'.(.
     eee:	20 00 21 01 22 00 23 80 24 86 25 c3 26 ab 27 0a      .!.".#.$.%.&.'.
     efe:	28 e4 20 42 21 ce 22 0f 24 89 25 07 26 aa 28 e5     (. B!.".$.%.&.(.
     f0e:	20 70 21 50 22 b8 23 95 26 12 27 08 28 e6 20 05      p!P".#.&.'.(. .
     f1e:	21 00 22 00 23 84 26 b4 27 09 28 e7 20 70 21 64     !.".#.&.'.(. p!d
     f2e:	22 b8 23 95 26 12 27 08 28 e8 20 00 21 01 22 00     ".#.&.'.(. .!.".
     f3e:	23 80 24 86 25 c3 26 ab 27 0a 28 e9 20 42 21 d3     #.$.%.&.'.(. B!.
     f4e:	22 0f 24 89 25 07 26 aa 28 ea 20 70 21 51 22 b8     ".$.%.&.(. p!Q".
     f5e:	23 95 26 12 27 08 28 eb 20 05 21 00 22 00 23 84     #.&.'.(. .!.".#.
     f6e:	26 b4 27 09 28 ec 20 70 21 65 22 b8 23 95 26 12     &.'.(. p!e".#.&.
     f7e:	27 08 28 ed 20 00 21 01 22 00 23 80 24 86 25 c3     '.(. .!.".#.$.%.
     f8e:	26 ab 27 0a 28 ee 20 42 21 d8 22 0f 24 89 25 07     &.'.(. B!.".$.%.
     f9e:	26 aa 28 ef 20 70 21 52 22 b8 23 95 26 12 27 08     &.(. p!R".#.&.'.
     fae:	28 f0 20 05 21 00 22 00 23 84 26 b4 27 09 28 f1     (. .!.".#.&.'.(.
     fbe:	20 70 21 61 22 b8 23 95 26 02 27 08 28 f2 20 00      p!a".#.&.'.(. .
     fce:	21 01 22 00 23 80 24 86 25 c3 26 ab 27 0a 28 f3     !.".#.$.%.&.'.(.
     fde:	20 42 21 dd 22 0f 24 89 25 07 26 aa 28 f4 20 70      B!.".$.%.&.(. p
     fee:	21 50 22 b8 23 95 26 02 27 08 28 f5 20 05 21 00     !P".#.&.'.(. .!.
     ffe:	22 00 23 84 26 b4 27 09 28 f6 20 00 21 01 23 80     ".#.&.'.(. .!.#.
    100e:	24 86 25 cb 26 ab 27 0a 28 f7 20 42 21 e1 22 0f     $.%.&.'.(. B!.".
    101e:	24 89 25 07 26 aa 28 f8 20 00 21 02 22 00 23 00     $.%.&.(. .!.".#.
    102e:	24 81 25 c4 26 ab 28 f9 21 00 23 80 24 89 25 48     $.%.&.(.!.#.$.%H
    103e:	26 aa 28 fa 20 05 23 84 25 07 26 b4 27 09 28 fb     &.(. .#.%.&.'.(.
    104e:	20 70 21 4e 22 b8 23 95 26 10 27 08 28 fc 20 00      p!N".#.&.'.(. .
    105e:	21 00 22 00 23 80 24 86 25 c3 26 ab 27 0a 28 fd     !.".#.$.%.&.'.(.
    106e:	20 42 21 e7 22 0f 24 89 25 07 26 aa 28 fe 20 00      B!.".$.%.&.(. .
    107e:	21 bb 22 00 23 95 26 20 27 00 28 ff 20 05 21 00     !.".#.& '.(. .!.
    108e:	23 84 26 b4 27 09 2a 08 10 01 ff ff ff ff           #.&.'.*.......

0000109c <Mnt_Drv_8>:
    109c:	52 65 6c 61 74 69 76 65 20 53 65 63 74 6f 72 73     Relative Sectors
    10ac:	20 3d 20 00                                          = .

000010b0 <Mnt_Drv_7>:
    10b0:	46 69 72 73 74 44 61 74 61 53 65 63 20 3d 20 00     FirstDataSec = .

000010c0 <Mnt_Drv_6>:
    10c0:	53 74 61 72 74 6f 66 46 41 54 20 3d 20 00           StartofFAT = .

000010ce <Mnt_Drv_5>:
    10ce:	46 41 54 33 32 20 44 65 74 65 63 74 65 64 2e 2e     FAT32 Detected..
    10de:	2e 0a 0d 00                                         ....

000010e2 <Mnt_Drv_4>:
    10e2:	46 41 54 31 36 20 44 65 74 65 63 74 65 64 2e 2e     FAT16 Detected..
    10f2:	2e 0a 0d 00                                         ....

000010f6 <Mnt_Drv_3>:
    10f6:	44 69 73 6b 20 45 72 72 6f 72 21 0a 0d 00           Disk Error!...

00001104 <Mnt_Drv_2>:
    1104:	52 65 6c 61 74 69 76 65 20 53 65 63 74 6f 72 73     Relative Sectors
    1114:	20 3d 20 00                                          = .

00001118 <Mnt_Drv_1>:
    1118:	4c 6f 63 61 74 69 6e 67 20 42 6f 6f 74 20 53 65     Locating Boot Se
    1128:	63 74 6f 72 2e 2e 2e 0a 0d 00                       ctor......

00001132 <Prnt_bytes_prnt>:
    1132:	41 64 64 72 2e 20 4f 66 66 73 65 74 20 20 20 30     Addr. Offset   0
    1142:	20 20 31 20 20 32 20 20 33 20 20 34 20 20 35 20       1  2  3  4  5 
    1152:	20 36 20 20 37 20 20 38 20 20 39 20 20 41 20 20      6  7  8  9  A  
    1162:	42 20 20 43 20 20 44 20 20 45 20 20 46 0a 0d 00     B  C  D  E  F...

00001172 <SD_Card_BlSz>:
    1172:	42 6c 6f 63 6b 20 73 69 7a 65 20 73 65 74 20 74     Block size set t
    1182:	6f 20 35 31 32 20 62 79 74 65 73 0a 0d 00           o 512 bytes...

00001190 <SD_Card_HC>:
    1190:	48 69 67 68 20 43 61 70 61 63 69 74 79 20 43 61     High Capacity Ca
    11a0:	72 64 20 64 65 74 65 63 74 65 64 2e 0a 0d 00        rd detected....

000011af <SD_Card_SC>:
    11af:	53 74 61 6e 64 61 72 64 20 43 61 70 61 63 69 74     Standard Capacit
    11bf:	79 20 43 61 72 64 20 64 65 74 65 63 74 65 64 2e     y Card detected.
    11cf:	0a 0d 00                                            ...

000011d2 <SD_Card_V2>:
    11d2:	56 65 72 73 69 6f 6e 20 32 20 53 44 20 43 61 72     Version 2 SD Car
    11e2:	64 20 64 65 74 65 63 74 65 64 2e 0a 0d 00           d detected....

000011f0 <SD_Card_V1>:
    11f0:	56 65 72 73 69 6f 6e 20 31 20 53 44 20 43 61 72     Version 1 SD Car
    1200:	64 20 64 65 74 65 63 74 65 64 2e 0a 0d 00           d detected....

0000120e <SD_Card_Resp>:
    120e:	52 65 73 70 6f 6e 73 65 20 3d 20 00                 Response = .

0000121a <SD_Card_ACMD41>:
    121a:	41 43 4d 44 34 31 20 73 65 6e 74 20 2e 2e 2e 20     ACMD41 sent ... 
	...

0000122b <SD_Card_CMD58>:
    122b:	43 4d 44 35 38 20 73 65 6e 74 20 2e 2e 2e 20 00     CMD58 sent ... .

0000123b <SD_Card_CMD16>:
    123b:	43 4d 44 31 36 20 73 65 6e 74 20 2e 2e 2e 20 00     CMD16 sent ... .

0000124b <SD_Card_CMD8>:
    124b:	43 4d 44 38 20 73 65 6e 74 20 2e 2e 2e 20 00        CMD8 sent ... .

0000125a <SD_Card_CMD0>:
    125a:	43 4d 44 30 20 73 65 6e 74 20 2e 2e 2e 20 00        CMD0 sent ... .

00001269 <SD_Card_Intro>:
    1269:	0a 0d 53 44 20 43 61 72 64 20 49 6e 69 74 69 61     ..SD Card Initia
    1279:	6c 69 7a 61 74 69 6f 6e 20 2e 2e 2e 20 0a 0d 00     lization ... ...

00001289 <Config_Complete_prnt>:
    1289:	43 6f 6e 66 69 67 75 72 61 74 69 6f 6e 20 43 6f     Configuration Co
    1299:	6d 70 6c 65 74 65 0a 0d 00                          mplete...

000012a2 <STA_rec_prnt>:
    12a2:	4f 75 74 70 75 74 20 66 72 6f 6d 20 53 54 41 30     Output from STA0
    12b2:	31 33 3a 20 00                                      13: .

000012b7 <STA_sent_prnt>:
    12b7:	53 65 6e 74 20 74 6f 20 53 54 41 30 31 33 3a 20     Sent to STA013: 
	...

000012c8 <Number_written_prnt>:
    12c8:	4e 75 6d 62 65 72 20 6f 66 20 76 61 6c 75 65 73     Number of values
    12d8:	20 77 72 69 74 74 65 6e 3a 20 00                     written: .

000012e3 <First_config_prnt>:
    12e3:	46 69 72 73 74 20 63 6f 6e 66 69 67 75 72 61 74     First configurat
    12f3:	69 6f 6e 20 66 69 6c 65 20 73 65 6e 74 2e 2e 2e     ion file sent...
    1303:	0a 0d 00                                            ...

00001306 <ID_Reg_prnt>:
    1306:	4f 75 74 70 75 74 20 66 72 6f 6d 20 49 44 20 72     Output from ID r
    1316:	65 67 69 73 74 65 72 3a 20 00                       egister: .

00001320 <Error_prnt>:
    1320:	65 72 72 6f 72 20 66 6c 61 67 3a 20 00              error flag: .

0000132d <STA_cfg_data>:
    132d:	07 10 09 02 b8 00 00 00 06 05 a1 00 04 05 07 07     ................
    133d:	00 01                                               ..

0000133f <STA_cfg_addr>:
    133f:	54 55 06 0b 52 51 65 64 50 61 05 0d 18 0c 46 48     TU..RQedPa....FH
    134f:	7d 72 00                                            }r.

00001352 <__ctors_end>:
    1352:	11 24       	eor	r1, r1
    1354:	1f be       	out	0x3f, r1	; 63
    1356:	cf ef       	ldi	r28, 0xFF	; 255
    1358:	d8 e0       	ldi	r29, 0x08	; 8
    135a:	de bf       	out	0x3e, r29	; 62
    135c:	cd bf       	out	0x3d, r28	; 61

0000135e <__do_copy_data>:
    135e:	11 e0       	ldi	r17, 0x01	; 1
    1360:	a0 e0       	ldi	r26, 0x00	; 0
    1362:	b1 e0       	ldi	r27, 0x01	; 1
    1364:	e0 e0       	ldi	r30, 0x00	; 0
    1366:	f2 e4       	ldi	r31, 0x42	; 66
    1368:	02 c0       	rjmp	.+4      	; 0x136e <__do_copy_data+0x10>
    136a:	05 90       	lpm	r0, Z+
    136c:	0d 92       	st	X+, r0
    136e:	a0 3f       	cpi	r26, 0xF0	; 240
    1370:	b1 07       	cpc	r27, r17
    1372:	d9 f7       	brne	.-10     	; 0x136a <__do_copy_data+0xc>

00001374 <__do_clear_bss>:
    1374:	26 e0       	ldi	r18, 0x06	; 6
    1376:	a0 ef       	ldi	r26, 0xF0	; 240
    1378:	b1 e0       	ldi	r27, 0x01	; 1
    137a:	01 c0       	rjmp	.+2      	; 0x137e <.do_clear_bss_start>

0000137c <.do_clear_bss_loop>:
    137c:	1d 92       	st	X+, r1

0000137e <.do_clear_bss_start>:
    137e:	ad 36       	cpi	r26, 0x6D	; 109
    1380:	b2 07       	cpc	r27, r18
    1382:	e1 f7       	brne	.-8      	; 0x137c <.do_clear_bss_loop>
    1384:	0e 94 e8 12 	call	0x25d0	; 0x25d0 <main>
    1388:	0c 94 fe 20 	jmp	0x41fc	; 0x41fc <_exit>

0000138c <__bad_interrupt>:
    138c:	0c 94 00 00 	jmp	0	; 0x0 <__vectors>

00001390 <Output_Init>:
#include "Control_Outputs.h"

void Output_Init(uint8_t volatile * port_addr, uint8_t pin_mask)
{
	//Set Port Pin to be an output with initial value '1'
	*(port_addr+DDR)|=(pin_mask);    // Set DDRx to make port pin an output
    1390:	fc 01       	movw	r30, r24
    1392:	21 81       	ldd	r18, Z+1	; 0x01
    1394:	62 2b       	or	r22, r18
    1396:	61 83       	std	Z+1, r22	; 0x01
    1398:	08 95       	ret

0000139a <Output_Set>:


void Output_Set(uint8_t volatile * port_addr, uint8_t pin_mask)
{
	//control = 0, LED off; control = 1, LED on 
		*(port_addr+PORT)|=(pin_mask);    // Set PORTx PORTx pin to value of '1'
    139a:	fc 01       	movw	r30, r24
    139c:	22 81       	ldd	r18, Z+2	; 0x02
    139e:	62 2b       	or	r22, r18
    13a0:	62 83       	std	Z+2, r22	; 0x02
    13a2:	08 95       	ret

000013a4 <Output_Clear>:
}

void Output_Clear(uint8_t volatile * port_addr, uint8_t pin_mask)
{
    13a4:	fc 01       	movw	r30, r24
	//control = 0, LED off; control = 1, LED on
		*(port_addr+PORT)&=~(pin_mask);    // Clear PORTx pin to value of '0'
    13a6:	92 81       	ldd	r25, Z+2	; 0x02
    13a8:	60 95       	com	r22
    13aa:	69 23       	and	r22, r25
    13ac:	62 83       	std	Z+2, r22	; 0x02
    13ae:	08 95       	ret

000013b0 <Export_Drive_values>:
************************************************************************/

FS_values_t * Export_Drive_values(void)
{
   return &Drive_values;
}
    13b0:	81 e4       	ldi	r24, 0x41	; 65
    13b2:	92 e0       	ldi	r25, 0x02	; 2
    13b4:	08 95       	ret

000013b6 <Print_Directory>:
************************************************************************/



uint16_t  Print_Directory(uint32_t Sector_num, uint8_t * array_in)
{ 
    13b6:	2f 92       	push	r2
    13b8:	3f 92       	push	r3
    13ba:	4f 92       	push	r4
    13bc:	5f 92       	push	r5
    13be:	6f 92       	push	r6
    13c0:	7f 92       	push	r7
    13c2:	8f 92       	push	r8
    13c4:	9f 92       	push	r9
    13c6:	af 92       	push	r10
    13c8:	bf 92       	push	r11
    13ca:	cf 92       	push	r12
    13cc:	df 92       	push	r13
    13ce:	ef 92       	push	r14
    13d0:	ff 92       	push	r15
    13d2:	0f 93       	push	r16
    13d4:	1f 93       	push	r17
    13d6:	cf 93       	push	r28
    13d8:	df 93       	push	r29
    13da:	cd b7       	in	r28, 0x3d	; 61
    13dc:	de b7       	in	r29, 0x3e	; 62
    13de:	2c 97       	sbiw	r28, 0x0c	; 12
    13e0:	0f b6       	in	r0, 0x3f	; 63
    13e2:	f8 94       	cli
    13e4:	de bf       	out	0x3e, r29	; 62
    13e6:	0f be       	out	0x3f, r0	; 63
    13e8:	cd bf       	out	0x3d, r28	; 61
    13ea:	2b 01       	movw	r4, r22
    13ec:	3c 01       	movw	r6, r24
    13ee:	5a 83       	std	Y+2, r21	; 0x02
    13f0:	49 83       	std	Y+1, r20	; 0x01
   uint16_t i, entries;
   uint8_t temp8, j, attr, out_val, error_flag;
   uint8_t * values;
   uint8_t *prnt_bffr;

   prnt_bffr=Export_print_buffer();
    13f2:	0e 94 2b 1d 	call	0x3a56	; 0x3a56 <Export_print_buffer>
    13f6:	28 2e       	mov	r2, r24
    13f8:	9a 87       	std	Y+10, r25	; 0x0a
   
   values=array_in;
   entries=0;
   i=0;
   if (Drive_values.FATtype==FAT16)  // included for FAT16 compatibility
    13fa:	80 91 42 02 	lds	r24, 0x0242	; 0x800242 <Drive_values+0x1>
    13fe:	82 30       	cpi	r24, 0x02	; 2
    1400:	69 f4       	brne	.+26     	; 0x141c <Print_Directory+0x66>
   { 
      max_sectors=Drive_values.RootDirSecs;   // maximum sectors in a FAT16 root directory
    1402:	20 91 53 02 	lds	r18, 0x0253	; 0x800253 <Drive_values+0x12>
    1406:	30 91 54 02 	lds	r19, 0x0254	; 0x800254 <Drive_values+0x13>
    140a:	40 91 55 02 	lds	r20, 0x0255	; 0x800255 <Drive_values+0x14>
    140e:	50 91 56 02 	lds	r21, 0x0256	; 0x800256 <Drive_values+0x15>
    1412:	2b 83       	std	Y+3, r18	; 0x03
    1414:	3c 83       	std	Y+4, r19	; 0x04
    1416:	4d 83       	std	Y+5, r20	; 0x05
    1418:	5e 83       	std	Y+6, r21	; 0x06
    141a:	0a c0       	rjmp	.+20     	; 0x1430 <Print_Directory+0x7a>
   }
   else
   {
      max_sectors=Drive_values.SecPerClus;
    141c:	80 91 41 02 	lds	r24, 0x0241	; 0x800241 <Drive_values>
    1420:	28 2f       	mov	r18, r24
    1422:	30 e0       	ldi	r19, 0x00	; 0
    1424:	40 e0       	ldi	r20, 0x00	; 0
    1426:	50 e0       	ldi	r21, 0x00	; 0
    1428:	2b 83       	std	Y+3, r18	; 0x03
    142a:	3c 83       	std	Y+4, r19	; 0x04
    142c:	4d 83       	std	Y+5, r20	; 0x05
    142e:	5e 83       	std	Y+6, r21	; 0x06
   }
   Sector=Sector_num;
   error_flag=Read_Sector(Sector,Drive_values.BytesPerSec,values);
    1430:	40 91 45 02 	lds	r20, 0x0245	; 0x800245 <Drive_values+0x4>
    1434:	50 91 46 02 	lds	r21, 0x0246	; 0x800246 <Drive_values+0x5>
    1438:	29 81       	ldd	r18, Y+1	; 0x01
    143a:	3a 81       	ldd	r19, Y+2	; 0x02
    143c:	c3 01       	movw	r24, r6
    143e:	b2 01       	movw	r22, r4
    1440:	0e 94 61 15 	call	0x2ac2	; 0x2ac2 <Read_Sector>
   if(error_flag==no_errors)
    1444:	88 23       	and	r24, r24
    1446:	31 f0       	breq	.+12     	; 0x1454 <Print_Directory+0x9e>
         
	  }while(temp8!=0);
	}
	else
	{
	   entries=0;    // no entries found indicates disk read error
    1448:	a1 2c       	mov	r10, r1
    144a:	b1 2c       	mov	r11, r1
    144c:	eb c0       	rjmp	.+470    	; 0x1624 <Print_Directory+0x26e>
			     if(error_flag!=no_errors)
			     {
			        entries=0;   // no entries found indicates disk read error
				    temp8=0;     // forces a function exit
			     }
                 i=0;
    144e:	81 2c       	mov	r8, r1
    1450:	91 2c       	mov	r9, r1
    1452:	06 c0       	rjmp	.+12     	; 0x1460 <Print_Directory+0xaa>
    1454:	73 01       	movw	r14, r6
    1456:	62 01       	movw	r12, r4
    1458:	a1 2c       	mov	r10, r1
    145a:	b1 2c       	mov	r11, r1
    145c:	81 2c       	mov	r8, r1
    145e:	91 2c       	mov	r9, r1
   error_flag=Read_Sector(Sector,Drive_values.BytesPerSec,values);
   if(error_flag==no_errors)
   {
     do
     {
        temp8=read_value_8(0+i,values);  // read first byte to see if empty
    1460:	69 81       	ldd	r22, Y+1	; 0x01
    1462:	7a 81       	ldd	r23, Y+2	; 0x02
    1464:	c4 01       	movw	r24, r8
    1466:	0e 94 71 0c 	call	0x18e2	; 0x18e2 <read_value_8>
    146a:	38 2e       	mov	r3, r24
        if((temp8!=0xE5)&&(temp8!=0x00))
    146c:	35 ee       	ldi	r19, 0xE5	; 229
    146e:	83 17       	cp	r24, r19
    1470:	09 f4       	brne	.+2      	; 0x1474 <Print_Directory+0xbe>
    1472:	cc c0       	rjmp	.+408    	; 0x160c <Print_Directory+0x256>
    1474:	88 23       	and	r24, r24
    1476:	09 f4       	brne	.+2      	; 0x147a <Print_Directory+0xc4>
    1478:	c0 c0       	rjmp	.+384    	; 0x15fa <Print_Directory+0x244>
	    {  
	       attr=read_value_8(0x0b+i,values);
    147a:	a4 01       	movw	r20, r8
    147c:	45 5f       	subi	r20, 0xF5	; 245
    147e:	5f 4f       	sbci	r21, 0xFF	; 255
    1480:	58 87       	std	Y+8, r21	; 0x08
    1482:	4f 83       	std	Y+7, r20	; 0x07
    1484:	69 81       	ldd	r22, Y+1	; 0x01
    1486:	7a 81       	ldd	r23, Y+2	; 0x02
    1488:	ca 01       	movw	r24, r20
    148a:	0e 94 71 0c 	call	0x18e2	; 0x18e2 <read_value_8>
    148e:	89 87       	std	Y+9, r24	; 0x09
		   if((attr&0x0E)==0)   // if hidden, system or Vol_ID bit is set do not print
    1490:	8e 70       	andi	r24, 0x0E	; 14
    1492:	09 f0       	breq	.+2      	; 0x1496 <Print_Directory+0xe0>
    1494:	a8 c0       	rjmp	.+336    	; 0x15e6 <Print_Directory+0x230>
		   {
		      entries++;
    1496:	5f ef       	ldi	r21, 0xFF	; 255
    1498:	a5 1a       	sub	r10, r21
    149a:	b5 0a       	sbc	r11, r21
			  sprintf(prnt_bffr,"%5d. ",entries);  // print entry number with a fixed width specifier
    149c:	bf 92       	push	r11
    149e:	af 92       	push	r10
    14a0:	80 e0       	ldi	r24, 0x00	; 0
    14a2:	91 e0       	ldi	r25, 0x01	; 1
    14a4:	9f 93       	push	r25
    14a6:	8f 93       	push	r24
    14a8:	ba 85       	ldd	r27, Y+10	; 0x0a
    14aa:	bf 93       	push	r27
    14ac:	2f 92       	push	r2
    14ae:	0e 94 14 1e 	call	0x3c28	; 0x3c28 <sprintf>
		      UART_Transmit_String(&UART1,0,prnt_bffr);
    14b2:	42 2d       	mov	r20, r2
    14b4:	5a 85       	ldd	r21, Y+10	; 0x0a
    14b6:	60 e0       	ldi	r22, 0x00	; 0
    14b8:	88 ec       	ldi	r24, 0xC8	; 200
    14ba:	90 e0       	ldi	r25, 0x00	; 0
    14bc:	0e 94 4e 1d 	call	0x3a9c	; 0x3a9c <UART_Transmit_String>
    14c0:	94 01       	movw	r18, r8
    14c2:	28 5f       	subi	r18, 0xF8	; 248
    14c4:	3f 4f       	sbci	r19, 0xFF	; 255
    14c6:	0f 90       	pop	r0
    14c8:	0f 90       	pop	r0
    14ca:	0f 90       	pop	r0
    14cc:	0f 90       	pop	r0
    14ce:	0f 90       	pop	r0
    14d0:	0f 90       	pop	r0
    14d2:	84 01       	movw	r16, r8
    14d4:	3c 87       	std	Y+12, r19	; 0x0c
    14d6:	2b 87       	std	Y+11, r18	; 0x0b
			  for(j=0;j<8;j++)
			  {
			     out_val=read_value_8(i+j,values);   // print the 8 byte name
    14d8:	69 81       	ldd	r22, Y+1	; 0x01
    14da:	7a 81       	ldd	r23, Y+2	; 0x02
    14dc:	c8 01       	movw	r24, r16
    14de:	0e 94 71 0c 	call	0x18e2	; 0x18e2 <read_value_8>
			     UART_Transmit(&UART1,out_val);
    14e2:	68 2f       	mov	r22, r24
    14e4:	88 ec       	ldi	r24, 0xC8	; 200
    14e6:	90 e0       	ldi	r25, 0x00	; 0
    14e8:	0e 94 1e 1d 	call	0x3a3c	; 0x3a3c <UART_Transmit>
    14ec:	0f 5f       	subi	r16, 0xFF	; 255
    14ee:	1f 4f       	sbci	r17, 0xFF	; 255
		   if((attr&0x0E)==0)   // if hidden, system or Vol_ID bit is set do not print
		   {
		      entries++;
			  sprintf(prnt_bffr,"%5d. ",entries);  // print entry number with a fixed width specifier
		      UART_Transmit_String(&UART1,0,prnt_bffr);
			  for(j=0;j<8;j++)
    14f0:	4b 85       	ldd	r20, Y+11	; 0x0b
    14f2:	5c 85       	ldd	r21, Y+12	; 0x0c
    14f4:	40 17       	cp	r20, r16
    14f6:	51 07       	cpc	r21, r17
    14f8:	79 f7       	brne	.-34     	; 0x14d8 <Print_Directory+0x122>
			  {
			     out_val=read_value_8(i+j,values);   // print the 8 byte name
			     UART_Transmit(&UART1,out_val);
			  }
              if((attr&0x10)==0x10)  // indicates directory
    14fa:	59 85       	ldd	r21, Y+9	; 0x09
    14fc:	54 ff       	sbrs	r21, 4
    14fe:	26 c0       	rjmp	.+76     	; 0x154c <Print_Directory+0x196>
    1500:	0f 81       	ldd	r16, Y+7	; 0x07
    1502:	18 85       	ldd	r17, Y+8	; 0x08
			  {
			     for(j=8;j<11;j++)
			     {
			        out_val=read_value_8(i+j,values);
    1504:	69 81       	ldd	r22, Y+1	; 0x01
    1506:	7a 81       	ldd	r23, Y+2	; 0x02
    1508:	8b 85       	ldd	r24, Y+11	; 0x0b
    150a:	9c 85       	ldd	r25, Y+12	; 0x0c
    150c:	0e 94 71 0c 	call	0x18e2	; 0x18e2 <read_value_8>
			        UART_Transmit(&UART1,out_val);
    1510:	68 2f       	mov	r22, r24
    1512:	88 ec       	ldi	r24, 0xC8	; 200
    1514:	90 e0       	ldi	r25, 0x00	; 0
    1516:	0e 94 1e 1d 	call	0x3a3c	; 0x3a3c <UART_Transmit>
    151a:	ab 85       	ldd	r26, Y+11	; 0x0b
    151c:	bc 85       	ldd	r27, Y+12	; 0x0c
    151e:	11 96       	adiw	r26, 0x01	; 1
    1520:	bc 87       	std	Y+12, r27	; 0x0c
    1522:	ab 87       	std	Y+11, r26	; 0x0b
			     out_val=read_value_8(i+j,values);   // print the 8 byte name
			     UART_Transmit(&UART1,out_val);
			  }
              if((attr&0x10)==0x10)  // indicates directory
			  {
			     for(j=8;j<11;j++)
    1524:	0a 17       	cp	r16, r26
    1526:	1b 07       	cpc	r17, r27
    1528:	69 f7       	brne	.-38     	; 0x1504 <Print_Directory+0x14e>
			     {
			        out_val=read_value_8(i+j,values);
			        UART_Transmit(&UART1,out_val);
			     }
			     sprintf(prnt_bffr,"[DIR]\n\r");
    152a:	88 e0       	ldi	r24, 0x08	; 8
    152c:	e6 e0       	ldi	r30, 0x06	; 6
    152e:	f1 e0       	ldi	r31, 0x01	; 1
    1530:	a2 2d       	mov	r26, r2
    1532:	ba 85       	ldd	r27, Y+10	; 0x0a
    1534:	01 90       	ld	r0, Z+
    1536:	0d 92       	st	X+, r0
    1538:	8a 95       	dec	r24
    153a:	e1 f7       	brne	.-8      	; 0x1534 <Print_Directory+0x17e>
				 UART_Transmit_String(&UART1,0,prnt_bffr);
    153c:	42 2d       	mov	r20, r2
    153e:	5a 85       	ldd	r21, Y+10	; 0x0a
    1540:	60 e0       	ldi	r22, 0x00	; 0
    1542:	88 ec       	ldi	r24, 0xC8	; 200
    1544:	90 e0       	ldi	r25, 0x00	; 0
    1546:	0e 94 4e 1d 	call	0x3a9c	; 0x3a9c <UART_Transmit_String>
    154a:	4d c0       	rjmp	.+154    	; 0x15e6 <Print_Directory+0x230>
			  }
			  else       // print a period and the three byte extension for a file
			  {
			     UART_Transmit(&UART1,0x2E);       
    154c:	6e e2       	ldi	r22, 0x2E	; 46
    154e:	88 ec       	ldi	r24, 0xC8	; 200
    1550:	90 e0       	ldi	r25, 0x00	; 0
    1552:	0e 94 1e 1d 	call	0x3a3c	; 0x3a3c <UART_Transmit>
    1556:	0f 81       	ldd	r16, Y+7	; 0x07
    1558:	18 85       	ldd	r17, Y+8	; 0x08
			     for(j=8;j<11;j++)
			     {
			        out_val=read_value_8(i+j,values);
    155a:	69 81       	ldd	r22, Y+1	; 0x01
    155c:	7a 81       	ldd	r23, Y+2	; 0x02
    155e:	8b 85       	ldd	r24, Y+11	; 0x0b
    1560:	9c 85       	ldd	r25, Y+12	; 0x0c
    1562:	0e 94 71 0c 	call	0x18e2	; 0x18e2 <read_value_8>
			        UART_Transmit(&UART1,out_val);
    1566:	68 2f       	mov	r22, r24
    1568:	88 ec       	ldi	r24, 0xC8	; 200
    156a:	90 e0       	ldi	r25, 0x00	; 0
    156c:	0e 94 1e 1d 	call	0x3a3c	; 0x3a3c <UART_Transmit>
    1570:	4b 85       	ldd	r20, Y+11	; 0x0b
    1572:	5c 85       	ldd	r21, Y+12	; 0x0c
    1574:	4f 5f       	subi	r20, 0xFF	; 255
    1576:	5f 4f       	sbci	r21, 0xFF	; 255
    1578:	5c 87       	std	Y+12, r21	; 0x0c
    157a:	4b 87       	std	Y+11, r20	; 0x0b
				 UART_Transmit_String(&UART1,0,prnt_bffr);
			  }
			  else       // print a period and the three byte extension for a file
			  {
			     UART_Transmit(&UART1,0x2E);       
			     for(j=8;j<11;j++)
    157c:	04 17       	cp	r16, r20
    157e:	15 07       	cpc	r17, r21
    1580:	61 f7       	brne	.-40     	; 0x155a <Print_Directory+0x1a4>
			     {
			        out_val=read_value_8(i+j,values);
			        UART_Transmit(&UART1,out_val);
			     }
			     UART_Transmit(&UART1,CR);
    1582:	6d e0       	ldi	r22, 0x0D	; 13
    1584:	88 ec       	ldi	r24, 0xC8	; 200
    1586:	90 e0       	ldi	r25, 0x00	; 0
    1588:	0e 94 1e 1d 	call	0x3a3c	; 0x3a3c <UART_Transmit>
                 UART_Transmit(&UART1,LF);
    158c:	6a e0       	ldi	r22, 0x0A	; 10
    158e:	88 ec       	ldi	r24, 0xC8	; 200
    1590:	90 e0       	ldi	r25, 0x00	; 0
    1592:	0e 94 1e 1d 	call	0x3a3c	; 0x3a3c <UART_Transmit>
    1596:	27 c0       	rjmp	.+78     	; 0x15e6 <Print_Directory+0x230>
		    }
		}
		    i=i+32;  // next entry
		    if(i>510)
		    {
			  Sector++;
    1598:	5f ef       	ldi	r21, 0xFF	; 255
    159a:	c5 1a       	sub	r12, r21
    159c:	d5 0a       	sbc	r13, r21
    159e:	e5 0a       	sbc	r14, r21
    15a0:	f5 0a       	sbc	r15, r21
              if((Sector-Sector_num)<max_sectors)
    15a2:	d7 01       	movw	r26, r14
    15a4:	c6 01       	movw	r24, r12
    15a6:	84 19       	sub	r24, r4
    15a8:	95 09       	sbc	r25, r5
    15aa:	a6 09       	sbc	r26, r6
    15ac:	b7 09       	sbc	r27, r7
    15ae:	2b 81       	ldd	r18, Y+3	; 0x03
    15b0:	3c 81       	ldd	r19, Y+4	; 0x04
    15b2:	4d 81       	ldd	r20, Y+5	; 0x05
    15b4:	5e 81       	ldd	r21, Y+6	; 0x06
    15b6:	82 17       	cp	r24, r18
    15b8:	93 07       	cpc	r25, r19
    15ba:	a4 07       	cpc	r26, r20
    15bc:	b5 07       	cpc	r27, r21
    15be:	68 f4       	brcc	.+26     	; 0x15da <Print_Directory+0x224>
			  {
                 error_flag=Read_Sector(Sector,Drive_values.BytesPerSec,values);
    15c0:	40 91 45 02 	lds	r20, 0x0245	; 0x800245 <Drive_values+0x4>
    15c4:	50 91 46 02 	lds	r21, 0x0246	; 0x800246 <Drive_values+0x5>
    15c8:	29 81       	ldd	r18, Y+1	; 0x01
    15ca:	3a 81       	ldd	r19, Y+2	; 0x02
    15cc:	c7 01       	movw	r24, r14
    15ce:	b6 01       	movw	r22, r12
    15d0:	0e 94 61 15 	call	0x2ac2	; 0x2ac2 <Read_Sector>
			     if(error_flag!=no_errors)
    15d4:	81 11       	cpse	r24, r1
    15d6:	24 c0       	rjmp	.+72     	; 0x1620 <Print_Directory+0x26a>
    15d8:	03 c0       	rjmp	.+6      	; 0x15e0 <Print_Directory+0x22a>
			     }
                 i=0;
			  }
			  else
			  {
			     entries=entries|more_entries;  // set msb to indicate more entries in another cluster
    15da:	68 94       	set
    15dc:	b7 f8       	bld	r11, 7
    15de:	22 c0       	rjmp	.+68     	; 0x1624 <Print_Directory+0x26e>
			     temp8=0;                       // forces a function exit
			  }
		    }
         
	  }while(temp8!=0);
    15e0:	31 10       	cpse	r3, r1
    15e2:	35 cf       	rjmp	.-406    	; 0x144e <Print_Directory+0x98>
    15e4:	1f c0       	rjmp	.+62     	; 0x1624 <Print_Directory+0x26e>
			     UART_Transmit(&UART1,CR);
                 UART_Transmit(&UART1,LF);
			  }
		    }
		}
		    i=i+32;  // next entry
    15e6:	30 e2       	ldi	r19, 0x20	; 32
    15e8:	83 0e       	add	r8, r19
    15ea:	91 1c       	adc	r9, r1
		    if(i>510)
    15ec:	4f ef       	ldi	r20, 0xFF	; 255
    15ee:	84 16       	cp	r8, r20
    15f0:	41 e0       	ldi	r20, 0x01	; 1
    15f2:	94 06       	cpc	r9, r20
    15f4:	08 f4       	brcc	.+2      	; 0x15f8 <Print_Directory+0x242>
    15f6:	34 cf       	rjmp	.-408    	; 0x1460 <Print_Directory+0xaa>
    15f8:	cf cf       	rjmp	.-98     	; 0x1598 <Print_Directory+0x1e2>
    15fa:	50 e2       	ldi	r21, 0x20	; 32
    15fc:	85 0e       	add	r8, r21
    15fe:	91 1c       	adc	r9, r1
    1600:	8f ef       	ldi	r24, 0xFF	; 255
    1602:	88 16       	cp	r8, r24
    1604:	81 e0       	ldi	r24, 0x01	; 1
    1606:	98 06       	cpc	r9, r24
    1608:	38 f6       	brcc	.-114    	; 0x1598 <Print_Directory+0x1e2>
    160a:	0c c0       	rjmp	.+24     	; 0x1624 <Print_Directory+0x26e>
			     UART_Transmit(&UART1,CR);
                 UART_Transmit(&UART1,LF);
			  }
		    }
		}
		    i=i+32;  // next entry
    160c:	90 e2       	ldi	r25, 0x20	; 32
    160e:	89 0e       	add	r8, r25
    1610:	91 1c       	adc	r9, r1
		    if(i>510)
    1612:	af ef       	ldi	r26, 0xFF	; 255
    1614:	8a 16       	cp	r8, r26
    1616:	a1 e0       	ldi	r26, 0x01	; 1
    1618:	9a 06       	cpc	r9, r26
    161a:	08 f4       	brcc	.+2      	; 0x161e <Print_Directory+0x268>
    161c:	21 cf       	rjmp	.-446    	; 0x1460 <Print_Directory+0xaa>
    161e:	bc cf       	rjmp	.-136    	; 0x1598 <Print_Directory+0x1e2>
              if((Sector-Sector_num)<max_sectors)
			  {
                 error_flag=Read_Sector(Sector,Drive_values.BytesPerSec,values);
			     if(error_flag!=no_errors)
			     {
			        entries=0;   // no entries found indicates disk read error
    1620:	a1 2c       	mov	r10, r1
    1622:	b1 2c       	mov	r11, r1
	else
	{
	   entries=0;    // no entries found indicates disk read error
	}
   return entries;
 }
    1624:	c5 01       	movw	r24, r10
    1626:	2c 96       	adiw	r28, 0x0c	; 12
    1628:	0f b6       	in	r0, 0x3f	; 63
    162a:	f8 94       	cli
    162c:	de bf       	out	0x3e, r29	; 62
    162e:	0f be       	out	0x3f, r0	; 63
    1630:	cd bf       	out	0x3d, r28	; 61
    1632:	df 91       	pop	r29
    1634:	cf 91       	pop	r28
    1636:	1f 91       	pop	r17
    1638:	0f 91       	pop	r16
    163a:	ff 90       	pop	r15
    163c:	ef 90       	pop	r14
    163e:	df 90       	pop	r13
    1640:	cf 90       	pop	r12
    1642:	bf 90       	pop	r11
    1644:	af 90       	pop	r10
    1646:	9f 90       	pop	r9
    1648:	8f 90       	pop	r8
    164a:	7f 90       	pop	r7
    164c:	6f 90       	pop	r6
    164e:	5f 90       	pop	r5
    1650:	4f 90       	pop	r4
    1652:	3f 90       	pop	r3
    1654:	2f 90       	pop	r2
    1656:	08 95       	ret

00001658 <Read_Dir_Entry>:
         a directory entry, clear for a file.  Bit 31 set for error.
CAUTION: 
************************************************************************/

uint32_t Read_Dir_Entry(uint32_t Sector_num, uint16_t Entry, uint8_t * array_in)
{ 
    1658:	2f 92       	push	r2
    165a:	3f 92       	push	r3
    165c:	4f 92       	push	r4
    165e:	5f 92       	push	r5
    1660:	6f 92       	push	r6
    1662:	7f 92       	push	r7
    1664:	8f 92       	push	r8
    1666:	9f 92       	push	r9
    1668:	af 92       	push	r10
    166a:	bf 92       	push	r11
    166c:	cf 92       	push	r12
    166e:	df 92       	push	r13
    1670:	ef 92       	push	r14
    1672:	ff 92       	push	r15
    1674:	0f 93       	push	r16
    1676:	1f 93       	push	r17
    1678:	cf 93       	push	r28
    167a:	df 93       	push	r29
    167c:	cd b7       	in	r28, 0x3d	; 61
    167e:	de b7       	in	r29, 0x3e	; 62
    1680:	2b 97       	sbiw	r28, 0x0b	; 11
    1682:	0f b6       	in	r0, 0x3f	; 63
    1684:	f8 94       	cli
    1686:	de bf       	out	0x3e, r29	; 62
    1688:	0f be       	out	0x3f, r0	; 63
    168a:	cd bf       	out	0x3d, r28	; 61
    168c:	4b 01       	movw	r8, r22
    168e:	5c 01       	movw	r10, r24
    1690:	5a 87       	std	Y+10, r21	; 0x0a
    1692:	49 87       	std	Y+9, r20	; 0x09
    1694:	19 01       	movw	r2, r18

   values=array_in;
   entries=0;
   i=0;
   return_clus=0;
   if (Drive_values.FATtype==FAT16)  // included for FAT16 compatibility
    1696:	80 91 42 02 	lds	r24, 0x0242	; 0x800242 <Drive_values+0x1>
    169a:	82 30       	cpi	r24, 0x02	; 2
    169c:	49 f4       	brne	.+18     	; 0x16b0 <Read_Dir_Entry+0x58>
   { 
      max_sectors=Drive_values.RootDirSecs;   // maximum sectors in a FAT16 root directory
    169e:	40 90 53 02 	lds	r4, 0x0253	; 0x800253 <Drive_values+0x12>
    16a2:	50 90 54 02 	lds	r5, 0x0254	; 0x800254 <Drive_values+0x13>
    16a6:	60 90 55 02 	lds	r6, 0x0255	; 0x800255 <Drive_values+0x14>
    16aa:	70 90 56 02 	lds	r7, 0x0256	; 0x800256 <Drive_values+0x15>
    16ae:	06 c0       	rjmp	.+12     	; 0x16bc <Read_Dir_Entry+0x64>
   }
   else
   {
      max_sectors=Drive_values.SecPerClus;
    16b0:	80 91 41 02 	lds	r24, 0x0241	; 0x800241 <Drive_values>
    16b4:	48 2e       	mov	r4, r24
    16b6:	51 2c       	mov	r5, r1
    16b8:	61 2c       	mov	r6, r1
    16ba:	71 2c       	mov	r7, r1
   }
   Sector=Sector_num;
   error_flag=Read_Sector(Sector,Drive_values.BytesPerSec,values);
    16bc:	40 91 45 02 	lds	r20, 0x0245	; 0x800245 <Drive_values+0x4>
    16c0:	50 91 46 02 	lds	r21, 0x0246	; 0x800246 <Drive_values+0x5>
    16c4:	91 01       	movw	r18, r2
    16c6:	c5 01       	movw	r24, r10
    16c8:	b4 01       	movw	r22, r8
    16ca:	0e 94 61 15 	call	0x2ac2	; 0x2ac2 <Read_Sector>
   if(error_flag==no_errors)
    16ce:	88 23       	and	r24, r24
    16d0:	61 f0       	breq	.+24     	; 0x16ea <Read_Dir_Entry+0x92>
         
	  }while(temp8!=0);
	}
	else
	{
	   return_clus=no_entry_found;
    16d2:	20 e0       	ldi	r18, 0x00	; 0
    16d4:	30 e0       	ldi	r19, 0x00	; 0
    16d6:	40 e0       	ldi	r20, 0x00	; 0
    16d8:	50 e8       	ldi	r21, 0x80	; 128
    16da:	29 83       	std	Y+1, r18	; 0x01
    16dc:	3a 83       	std	Y+2, r19	; 0x02
    16de:	4b 83       	std	Y+3, r20	; 0x03
    16e0:	5c 83       	std	Y+4, r21	; 0x04
    16e2:	e2 c0       	rjmp	.+452    	; 0x18a8 <Read_Dir_Entry+0x250>
			     if(error_flag!=no_errors)
			     {
			         return_clus=no_entry_found;
                     temp8=0; 
			     }
			     i=0;
    16e4:	00 e0       	ldi	r16, 0x00	; 0
    16e6:	10 e0       	ldi	r17, 0x00	; 0
    16e8:	0a c0       	rjmp	.+20     	; 0x16fe <Read_Dir_Entry+0xa6>
    16ea:	75 01       	movw	r14, r10
    16ec:	64 01       	movw	r12, r8
    16ee:	18 86       	std	Y+8, r1	; 0x08
    16f0:	1f 82       	std	Y+7, r1	; 0x07
    16f2:	00 e0       	ldi	r16, 0x00	; 0
    16f4:	10 e0       	ldi	r17, 0x00	; 0
    16f6:	19 82       	std	Y+1, r1	; 0x01
    16f8:	1a 82       	std	Y+2, r1	; 0x02
    16fa:	1b 82       	std	Y+3, r1	; 0x03
    16fc:	1c 82       	std	Y+4, r1	; 0x04
   error_flag=Read_Sector(Sector,Drive_values.BytesPerSec,values);
   if(error_flag==no_errors)
   {
     do
     {
        temp8=read_value_8(0+i,values);  // read first byte to see if empty
    16fe:	b1 01       	movw	r22, r2
    1700:	c8 01       	movw	r24, r16
    1702:	0e 94 71 0c 	call	0x18e2	; 0x18e2 <read_value_8>
    1706:	8b 87       	std	Y+11, r24	; 0x0b
        if((temp8!=0xE5)&&(temp8!=0x00))
    1708:	85 3e       	cpi	r24, 0xE5	; 229
    170a:	09 f4       	brne	.+2      	; 0x170e <Read_Dir_Entry+0xb6>
    170c:	ba c0       	rjmp	.+372    	; 0x1882 <Read_Dir_Entry+0x22a>
    170e:	88 23       	and	r24, r24
    1710:	09 f4       	brne	.+2      	; 0x1714 <Read_Dir_Entry+0xbc>
    1712:	c3 c0       	rjmp	.+390    	; 0x189a <Read_Dir_Entry+0x242>
	    {  
	       attr=read_value_8(0x0b+i,values);
    1714:	a8 01       	movw	r20, r16
    1716:	45 5f       	subi	r20, 0xF5	; 245
    1718:	5f 4f       	sbci	r21, 0xFF	; 255
    171a:	5e 83       	std	Y+6, r21	; 0x06
    171c:	4d 83       	std	Y+5, r20	; 0x05
    171e:	b1 01       	movw	r22, r2
    1720:	ca 01       	movw	r24, r20
    1722:	0e 94 71 0c 	call	0x18e2	; 0x18e2 <read_value_8>
		   if((attr&0x0E)==0)    // if hidden do not print
    1726:	8e 70       	andi	r24, 0x0E	; 14
    1728:	09 f0       	breq	.+2      	; 0x172c <Read_Dir_Entry+0xd4>
    172a:	a3 c0       	rjmp	.+326    	; 0x1872 <Read_Dir_Entry+0x21a>
		   {
		      entries++;
    172c:	8f 81       	ldd	r24, Y+7	; 0x07
    172e:	98 85       	ldd	r25, Y+8	; 0x08
    1730:	01 96       	adiw	r24, 0x01	; 1
    1732:	98 87       	std	Y+8, r25	; 0x08
    1734:	8f 83       	std	Y+7, r24	; 0x07
              if(entries==Entry)
    1736:	a9 85       	ldd	r26, Y+9	; 0x09
    1738:	ba 85       	ldd	r27, Y+10	; 0x0a
    173a:	8a 17       	cp	r24, r26
    173c:	9b 07       	cpc	r25, r27
    173e:	09 f0       	breq	.+2      	; 0x1742 <Read_Dir_Entry+0xea>
    1740:	98 c0       	rjmp	.+304    	; 0x1872 <Read_Dir_Entry+0x21a>
              {
			    if(Drive_values.FATtype==FAT32)
    1742:	80 91 42 02 	lds	r24, 0x0242	; 0x800242 <Drive_values+0x1>
    1746:	84 30       	cpi	r24, 0x04	; 4
    1748:	21 f5       	brne	.+72     	; 0x1792 <Read_Dir_Entry+0x13a>
                {
                   return_clus=read_value_8(21+i,values);
    174a:	b1 01       	movw	r22, r2
    174c:	c8 01       	movw	r24, r16
    174e:	45 96       	adiw	r24, 0x15	; 21
    1750:	0e 94 71 0c 	call	0x18e2	; 0x18e2 <read_value_8>
    1754:	90 e0       	ldi	r25, 0x00	; 0
    1756:	a0 e0       	ldi	r26, 0x00	; 0
    1758:	b0 e0       	ldi	r27, 0x00	; 0
				   return_clus=return_clus<<8;
    175a:	22 27       	eor	r18, r18
    175c:	38 2f       	mov	r19, r24
    175e:	49 2f       	mov	r20, r25
    1760:	5a 2f       	mov	r21, r26
    1762:	29 83       	std	Y+1, r18	; 0x01
    1764:	3a 83       	std	Y+2, r19	; 0x02
    1766:	4b 83       	std	Y+3, r20	; 0x03
    1768:	5c 83       	std	Y+4, r21	; 0x04
                   return_clus|=read_value_8(20+i,values);
    176a:	b1 01       	movw	r22, r2
    176c:	c8 01       	movw	r24, r16
    176e:	44 96       	adiw	r24, 0x14	; 20
    1770:	0e 94 71 0c 	call	0x18e2	; 0x18e2 <read_value_8>
    1774:	29 81       	ldd	r18, Y+1	; 0x01
    1776:	3a 81       	ldd	r19, Y+2	; 0x02
    1778:	4b 81       	ldd	r20, Y+3	; 0x03
    177a:	5c 81       	ldd	r21, Y+4	; 0x04
    177c:	28 2b       	or	r18, r24
    177e:	da 01       	movw	r26, r20
    1780:	c9 01       	movw	r24, r18
                   return_clus=return_clus<<8;
    1782:	22 27       	eor	r18, r18
    1784:	38 2f       	mov	r19, r24
    1786:	49 2f       	mov	r20, r25
    1788:	5a 2f       	mov	r21, r26
    178a:	29 83       	std	Y+1, r18	; 0x01
    178c:	3a 83       	std	Y+2, r19	; 0x02
    178e:	4b 83       	std	Y+3, r20	; 0x03
    1790:	5c 83       	std	Y+4, r21	; 0x04
                }
                return_clus|=read_value_8(27+i,values);
    1792:	b1 01       	movw	r22, r2
    1794:	c8 01       	movw	r24, r16
    1796:	4b 96       	adiw	r24, 0x1b	; 27
    1798:	0e 94 71 0c 	call	0x18e2	; 0x18e2 <read_value_8>
    179c:	29 81       	ldd	r18, Y+1	; 0x01
    179e:	3a 81       	ldd	r19, Y+2	; 0x02
    17a0:	4b 81       	ldd	r20, Y+3	; 0x03
    17a2:	5c 81       	ldd	r21, Y+4	; 0x04
    17a4:	28 2b       	or	r18, r24
    17a6:	da 01       	movw	r26, r20
    17a8:	c9 01       	movw	r24, r18
			    return_clus=return_clus<<8;
    17aa:	22 27       	eor	r18, r18
    17ac:	38 2f       	mov	r19, r24
    17ae:	49 2f       	mov	r20, r25
    17b0:	5a 2f       	mov	r21, r26
    17b2:	29 83       	std	Y+1, r18	; 0x01
    17b4:	3a 83       	std	Y+2, r19	; 0x02
    17b6:	4b 83       	std	Y+3, r20	; 0x03
    17b8:	5c 83       	std	Y+4, r21	; 0x04
                return_clus|=read_value_8(26+i,values);
    17ba:	b1 01       	movw	r22, r2
    17bc:	c8 01       	movw	r24, r16
    17be:	4a 96       	adiw	r24, 0x1a	; 26
    17c0:	0e 94 71 0c 	call	0x18e2	; 0x18e2 <read_value_8>
    17c4:	29 81       	ldd	r18, Y+1	; 0x01
    17c6:	3a 81       	ldd	r19, Y+2	; 0x02
    17c8:	4b 81       	ldd	r20, Y+3	; 0x03
    17ca:	5c 81       	ldd	r21, Y+4	; 0x04
    17cc:	28 2b       	or	r18, r24
    17ce:	29 83       	std	Y+1, r18	; 0x01
    17d0:	3a 83       	std	Y+2, r19	; 0x02
    17d2:	4b 83       	std	Y+3, r20	; 0x03
    17d4:	5c 83       	std	Y+4, r21	; 0x04
			    attr=read_value_8(0x0b+i,values);
    17d6:	b1 01       	movw	r22, r2
    17d8:	8d 81       	ldd	r24, Y+5	; 0x05
    17da:	9e 81       	ldd	r25, Y+6	; 0x06
    17dc:	0e 94 71 0c 	call	0x18e2	; 0x18e2 <read_value_8>
			    if(attr&0x10) return_clus|=directory_bit;
    17e0:	84 ff       	sbrs	r24, 4
    17e2:	57 c0       	rjmp	.+174    	; 0x1892 <Read_Dir_Entry+0x23a>
    17e4:	89 81       	ldd	r24, Y+1	; 0x01
    17e6:	9a 81       	ldd	r25, Y+2	; 0x02
    17e8:	ab 81       	ldd	r26, Y+3	; 0x03
    17ea:	bc 81       	ldd	r27, Y+4	; 0x04
    17ec:	b0 61       	ori	r27, 0x10	; 16
    17ee:	89 83       	std	Y+1, r24	; 0x01
    17f0:	9a 83       	std	Y+2, r25	; 0x02
    17f2:	ab 83       	std	Y+3, r26	; 0x03
    17f4:	bc 83       	std	Y+4, r27	; 0x04
        if((temp8!=0xE5)&&(temp8!=0x00))
	    {  
	       attr=read_value_8(0x0b+i,values);
		   if((attr&0x0E)==0)    // if hidden do not print
		   {
		      entries++;
    17f6:	a9 85       	ldd	r26, Y+9	; 0x09
    17f8:	ba 85       	ldd	r27, Y+10	; 0x0a
    17fa:	b8 87       	std	Y+8, r27	; 0x08
    17fc:	af 83       	std	Y+7, r26	; 0x07
    17fe:	4d c0       	rjmp	.+154    	; 0x189a <Read_Dir_Entry+0x242>
              }
              
		    }
		}
		    i=i+32;  // next entry
		    if(i>510)
    1800:	1b 86       	std	Y+11, r1	; 0x0b
		    {
			  Sector++;
    1802:	bf ef       	ldi	r27, 0xFF	; 255
    1804:	cb 1a       	sub	r12, r27
    1806:	db 0a       	sbc	r13, r27
    1808:	eb 0a       	sbc	r14, r27
    180a:	fb 0a       	sbc	r15, r27
			  if((Sector-Sector_num)<max_sectors)
    180c:	d7 01       	movw	r26, r14
    180e:	c6 01       	movw	r24, r12
    1810:	88 19       	sub	r24, r8
    1812:	99 09       	sbc	r25, r9
    1814:	aa 09       	sbc	r26, r10
    1816:	bb 09       	sbc	r27, r11
    1818:	84 15       	cp	r24, r4
    181a:	95 05       	cpc	r25, r5
    181c:	a6 05       	cpc	r26, r6
    181e:	b7 05       	cpc	r27, r7
    1820:	70 f4       	brcc	.+28     	; 0x183e <Read_Dir_Entry+0x1e6>
			  {
                 error_flag=Read_Sector(Sector,Drive_values.BytesPerSec,values);
    1822:	40 91 45 02 	lds	r20, 0x0245	; 0x800245 <Drive_values+0x4>
    1826:	50 91 46 02 	lds	r21, 0x0246	; 0x800246 <Drive_values+0x5>
    182a:	91 01       	movw	r18, r2
    182c:	c7 01       	movw	r24, r14
    182e:	b6 01       	movw	r22, r12
    1830:	0e 94 61 15 	call	0x2ac2	; 0x2ac2 <Read_Sector>
			     if(error_flag!=no_errors)
    1834:	81 11       	cpse	r24, r1
    1836:	14 c0       	rjmp	.+40     	; 0x1860 <Read_Dir_Entry+0x208>
			  {
			     temp8=0;                       // forces a function exit
			  }
		    }
         
	  }while(temp8!=0);
    1838:	2b 85       	ldd	r18, Y+11	; 0x0b
    183a:	21 11       	cpse	r18, r1
    183c:	53 cf       	rjmp	.-346    	; 0x16e4 <Read_Dir_Entry+0x8c>
	}
	else
	{
	   return_clus=no_entry_found;
	}
	if(return_clus==0) return_clus=no_entry_found;
    183e:	89 81       	ldd	r24, Y+1	; 0x01
    1840:	9a 81       	ldd	r25, Y+2	; 0x02
    1842:	ab 81       	ldd	r26, Y+3	; 0x03
    1844:	bc 81       	ldd	r27, Y+4	; 0x04
    1846:	89 2b       	or	r24, r25
    1848:	8a 2b       	or	r24, r26
    184a:	8b 2b       	or	r24, r27
    184c:	69 f5       	brne	.+90     	; 0x18a8 <Read_Dir_Entry+0x250>
    184e:	20 e0       	ldi	r18, 0x00	; 0
    1850:	30 e0       	ldi	r19, 0x00	; 0
    1852:	40 e0       	ldi	r20, 0x00	; 0
    1854:	50 e8       	ldi	r21, 0x80	; 128
    1856:	29 83       	std	Y+1, r18	; 0x01
    1858:	3a 83       	std	Y+2, r19	; 0x02
    185a:	4b 83       	std	Y+3, r20	; 0x03
    185c:	5c 83       	std	Y+4, r21	; 0x04
    185e:	24 c0       	rjmp	.+72     	; 0x18a8 <Read_Dir_Entry+0x250>
			  if((Sector-Sector_num)<max_sectors)
			  {
                 error_flag=Read_Sector(Sector,Drive_values.BytesPerSec,values);
			     if(error_flag!=no_errors)
			     {
			         return_clus=no_entry_found;
    1860:	80 e0       	ldi	r24, 0x00	; 0
    1862:	90 e0       	ldi	r25, 0x00	; 0
    1864:	a0 e0       	ldi	r26, 0x00	; 0
    1866:	b0 e8       	ldi	r27, 0x80	; 128
    1868:	89 83       	std	Y+1, r24	; 0x01
    186a:	9a 83       	std	Y+2, r25	; 0x02
    186c:	ab 83       	std	Y+3, r26	; 0x03
    186e:	bc 83       	std	Y+4, r27	; 0x04
	else
	{
	   return_clus=no_entry_found;
	}
	if(return_clus==0) return_clus=no_entry_found;
   return return_clus;
    1870:	1b c0       	rjmp	.+54     	; 0x18a8 <Read_Dir_Entry+0x250>
                temp8=0;    // forces a function exit
              }
              
		    }
		}
		    i=i+32;  // next entry
    1872:	00 5e       	subi	r16, 0xE0	; 224
    1874:	1f 4f       	sbci	r17, 0xFF	; 255
		    if(i>510)
    1876:	0f 3f       	cpi	r16, 0xFF	; 255
    1878:	91 e0       	ldi	r25, 0x01	; 1
    187a:	19 07       	cpc	r17, r25
    187c:	08 f4       	brcc	.+2      	; 0x1880 <Read_Dir_Entry+0x228>
    187e:	3f cf       	rjmp	.-386    	; 0x16fe <Read_Dir_Entry+0xa6>
    1880:	c0 cf       	rjmp	.-128    	; 0x1802 <Read_Dir_Entry+0x1aa>
                temp8=0;    // forces a function exit
              }
              
		    }
		}
		    i=i+32;  // next entry
    1882:	00 5e       	subi	r16, 0xE0	; 224
    1884:	1f 4f       	sbci	r17, 0xFF	; 255
		    if(i>510)
    1886:	0f 3f       	cpi	r16, 0xFF	; 255
    1888:	a1 e0       	ldi	r26, 0x01	; 1
    188a:	1a 07       	cpc	r17, r26
    188c:	08 f4       	brcc	.+2      	; 0x1890 <Read_Dir_Entry+0x238>
    188e:	37 cf       	rjmp	.-402    	; 0x16fe <Read_Dir_Entry+0xa6>
    1890:	b8 cf       	rjmp	.-144    	; 0x1802 <Read_Dir_Entry+0x1aa>
        if((temp8!=0xE5)&&(temp8!=0x00))
	    {  
	       attr=read_value_8(0x0b+i,values);
		   if((attr&0x0E)==0)    // if hidden do not print
		   {
		      entries++;
    1892:	29 85       	ldd	r18, Y+9	; 0x09
    1894:	3a 85       	ldd	r19, Y+10	; 0x0a
    1896:	38 87       	std	Y+8, r19	; 0x08
    1898:	2f 83       	std	Y+7, r18	; 0x07
              }
              
		    }
		}
		    i=i+32;  // next entry
		    if(i>510)
    189a:	00 5e       	subi	r16, 0xE0	; 224
    189c:	1f 4f       	sbci	r17, 0xFF	; 255
    189e:	0f 3f       	cpi	r16, 0xFF	; 255
    18a0:	11 40       	sbci	r17, 0x01	; 1
    18a2:	08 f0       	brcs	.+2      	; 0x18a6 <Read_Dir_Entry+0x24e>
    18a4:	ad cf       	rjmp	.-166    	; 0x1800 <Read_Dir_Entry+0x1a8>
    18a6:	cb cf       	rjmp	.-106    	; 0x183e <Read_Dir_Entry+0x1e6>
	{
	   return_clus=no_entry_found;
	}
	if(return_clus==0) return_clus=no_entry_found;
   return return_clus;
 }
    18a8:	69 81       	ldd	r22, Y+1	; 0x01
    18aa:	7a 81       	ldd	r23, Y+2	; 0x02
    18ac:	8b 81       	ldd	r24, Y+3	; 0x03
    18ae:	9c 81       	ldd	r25, Y+4	; 0x04
    18b0:	2b 96       	adiw	r28, 0x0b	; 11
    18b2:	0f b6       	in	r0, 0x3f	; 63
    18b4:	f8 94       	cli
    18b6:	de bf       	out	0x3e, r29	; 62
    18b8:	0f be       	out	0x3f, r0	; 63
    18ba:	cd bf       	out	0x3d, r28	; 61
    18bc:	df 91       	pop	r29
    18be:	cf 91       	pop	r28
    18c0:	1f 91       	pop	r17
    18c2:	0f 91       	pop	r16
    18c4:	ff 90       	pop	r15
    18c6:	ef 90       	pop	r14
    18c8:	df 90       	pop	r13
    18ca:	cf 90       	pop	r12
    18cc:	bf 90       	pop	r11
    18ce:	af 90       	pop	r10
    18d0:	9f 90       	pop	r9
    18d2:	8f 90       	pop	r8
    18d4:	7f 90       	pop	r7
    18d6:	6f 90       	pop	r6
    18d8:	5f 90       	pop	r5
    18da:	4f 90       	pop	r4
    18dc:	3f 90       	pop	r3
    18de:	2f 90       	pop	r2
    18e0:	08 95       	ret

000018e2 <read_value_8>:
uint8_t read_value_8(uint16_t offset, uint8_t * array_name)
{
   uint8_t return_val;
   uint8_t prnt_bffr[15];
   offset&=0x1FF;  // limit offset to 0 to 511
   return_val=*(array_name+offset);
    18e2:	91 70       	andi	r25, 0x01	; 1
    18e4:	fb 01       	movw	r30, r22
    18e6:	e8 0f       	add	r30, r24
    18e8:	f9 1f       	adc	r31, r25
   //sprintf(prnt_bffr,"%u\n\r",return_val);
   //UART_Transmit_String(&UART1,0,prnt_bffr);
   return return_val;
}
    18ea:	80 81       	ld	r24, Z
    18ec:	08 95       	ret

000018ee <read_value_16>:
{
   uint16_t return_val;
   uint8_t prnt_bffr[15];
   uint8_t temp8;
   return_val=0;
   offset&=0x1FF;  // limit offset to 0 to 511
    18ee:	91 70       	andi	r25, 0x01	; 1
   return_val=*(array_name+offset+1);
    18f0:	fb 01       	movw	r30, r22
    18f2:	e8 0f       	add	r30, r24
    18f4:	f9 1f       	adc	r31, r25
    18f6:	91 81       	ldd	r25, Z+1	; 0x01
    18f8:	89 2f       	mov	r24, r25
    18fa:	90 e0       	ldi	r25, 0x00	; 0
   return_val=(return_val<<8);
    18fc:	98 2f       	mov	r25, r24
    18fe:	88 27       	eor	r24, r24
   temp8=*(array_name+offset);
   return_val|=temp8;
   //sprintf(prnt_bffr,"%u\n\r",return_val);
   //UART_Transmit_String(&UART1,0,prnt_bffr);
   return return_val;
    1900:	20 81       	ld	r18, Z
}
    1902:	82 2b       	or	r24, r18
    1904:	08 95       	ret

00001906 <read_value_32>:
uint32_t read_value_32(uint16_t offset, uint8_t * array_name)
{
   uint32_t return_val;
   uint8_t prnt_bffr[15];
   uint8_t temp8;
   offset&=0x1FF;  // limit offset to 0 to 511
    1906:	91 70       	andi	r25, 0x01	; 1
   return_val=*(array_name+offset+3);
    1908:	fb 01       	movw	r30, r22
    190a:	e8 0f       	add	r30, r24
    190c:	f9 1f       	adc	r31, r25
    190e:	63 81       	ldd	r22, Z+3	; 0x03
    1910:	86 2f       	mov	r24, r22
    1912:	90 e0       	ldi	r25, 0x00	; 0
    1914:	a0 e0       	ldi	r26, 0x00	; 0
    1916:	b0 e0       	ldi	r27, 0x00	; 0
   return_val=(return_val<<8);
    1918:	ba 2f       	mov	r27, r26
    191a:	a9 2f       	mov	r26, r25
    191c:	98 2f       	mov	r25, r24
    191e:	88 27       	eor	r24, r24
   temp8=*(array_name+offset+2);
   return_val|=temp8;
    1920:	22 81       	ldd	r18, Z+2	; 0x02
    1922:	82 2b       	or	r24, r18
   return_val=(return_val<<8);
    1924:	ba 2f       	mov	r27, r26
    1926:	a9 2f       	mov	r26, r25
    1928:	98 2f       	mov	r25, r24
    192a:	88 27       	eor	r24, r24
   temp8=*(array_name+offset+1);
   return_val|=temp8;
    192c:	21 81       	ldd	r18, Z+1	; 0x01
    192e:	82 2b       	or	r24, r18
   return_val=(return_val<<8);
    1930:	ba 2f       	mov	r27, r26
    1932:	a9 2f       	mov	r26, r25
    1934:	98 2f       	mov	r25, r24
    1936:	88 27       	eor	r24, r24
   temp8=*(array_name+offset);
   return_val|=temp8;
   //sprintf(prnt_bffr,"%u\n\r",return_val);
   //UART_Transmit_String(&UART1,0,prnt_bffr);
   return return_val;
    1938:	20 81       	ld	r18, Z
    193a:	bc 01       	movw	r22, r24
    193c:	cd 01       	movw	r24, r26
    193e:	62 2b       	or	r22, r18
}
    1940:	08 95       	ret

00001942 <Mount_Drive>:

CAUTION: 
************************************************************************/

uint8_t Mount_Drive(uint8_t * array_in)
{
    1942:	2f 92       	push	r2
    1944:	3f 92       	push	r3
    1946:	4f 92       	push	r4
    1948:	5f 92       	push	r5
    194a:	6f 92       	push	r6
    194c:	7f 92       	push	r7
    194e:	8f 92       	push	r8
    1950:	9f 92       	push	r9
    1952:	af 92       	push	r10
    1954:	bf 92       	push	r11
    1956:	cf 92       	push	r12
    1958:	df 92       	push	r13
    195a:	ef 92       	push	r14
    195c:	ff 92       	push	r15
    195e:	0f 93       	push	r16
    1960:	1f 93       	push	r17
    1962:	cf 93       	push	r28
    1964:	df 93       	push	r29
    1966:	cd b7       	in	r28, 0x3d	; 61
    1968:	de b7       	in	r29, 0x3e	; 62
    196a:	2e 97       	sbiw	r28, 0x0e	; 14
    196c:	0f b6       	in	r0, 0x3f	; 63
    196e:	f8 94       	cli
    1970:	de bf       	out	0x3e, r29	; 62
    1972:	0f be       	out	0x3f, r0	; 63
    1974:	cd bf       	out	0x3d, r28	; 61
    1976:	7c 01       	movw	r14, r24
  uint16_t RsvdSecCnt, RootEntCnt, temp16;
  uint8_t NumFAT, temp8;
  uint8_t *values,*prnt_bffr;
  FS_values_t * Drive_p;

   Drive_p=Export_Drive_values();
    1978:	0e 94 d8 09 	call	0x13b0	; 0x13b0 <Export_Drive_values>
    197c:	9e 87       	std	Y+14, r25	; 0x0e
    197e:	8d 87       	std	Y+13, r24	; 0x0d
   MBR_RelSec=0;
   RootClus=0;
   values=array_in;
   //PORTLED |= (1 << PORTLED_AMBER);
   prnt_bffr=Export_print_buffer();
    1980:	0e 94 2b 1d 	call	0x3a56	; 0x3a56 <Export_print_buffer>
    1984:	08 2f       	mov	r16, r24
    1986:	19 2f       	mov	r17, r25
   
   Copy_String_to_Buffer(Mnt_Drv_1,0,prnt_bffr);
    1988:	48 2f       	mov	r20, r24
    198a:	59 2f       	mov	r21, r25
    198c:	60 e0       	ldi	r22, 0x00	; 0
    198e:	88 e1       	ldi	r24, 0x18	; 24
    1990:	91 e1       	ldi	r25, 0x11	; 17
    1992:	0e 94 2e 1d 	call	0x3a5c	; 0x3a5c <Copy_String_to_Buffer>
   UART_Transmit_String(&UART1,0,prnt_bffr);
    1996:	40 2f       	mov	r20, r16
    1998:	51 2f       	mov	r21, r17
    199a:	60 e0       	ldi	r22, 0x00	; 0
    199c:	88 ec       	ldi	r24, 0xC8	; 200
    199e:	90 e0       	ldi	r25, 0x00	; 0
    19a0:	0e 94 4e 1d 	call	0x3a9c	; 0x3a9c <UART_Transmit_String>
   //printf("Locating Boot Sector...\n\r");
   Read_Sector(0,512,values);
    19a4:	97 01       	movw	r18, r14
    19a6:	40 e0       	ldi	r20, 0x00	; 0
    19a8:	52 e0       	ldi	r21, 0x02	; 2
    19aa:	60 e0       	ldi	r22, 0x00	; 0
    19ac:	70 e0       	ldi	r23, 0x00	; 0
    19ae:	cb 01       	movw	r24, r22
    19b0:	0e 94 61 15 	call	0x2ac2	; 0x2ac2 <Read_Sector>
   //print_memory(&UART1,512,values);
   temp8=read_value_8(0,values);
   if((temp8!=0xEB)&&(temp8!=0xE9))
    19b4:	d7 01       	movw	r26, r14
    19b6:	8c 91       	ld	r24, X
    19b8:	8d 7f       	andi	r24, 0xFD	; 253
    19ba:	89 3e       	cpi	r24, 0xE9	; 233
    19bc:	09 f4       	brne	.+2      	; 0x19c0 <Mount_Drive+0x7e>
    19be:	4d c0       	rjmp	.+154    	; 0x1a5a <Mount_Drive+0x118>
   {
      MBR_RelSec=read_value_32(MBR_RelSectors,values);
    19c0:	b7 01       	movw	r22, r14
    19c2:	86 ec       	ldi	r24, 0xC6	; 198
    19c4:	91 e0       	ldi	r25, 0x01	; 1
    19c6:	0e 94 83 0c 	call	0x1906	; 0x1906 <read_value_32>
    19ca:	69 83       	std	Y+1, r22	; 0x01
    19cc:	7a 83       	std	Y+2, r23	; 0x02
    19ce:	8b 83       	std	Y+3, r24	; 0x03
    19d0:	9c 83       	std	Y+4, r25	; 0x04
	  Read_Sector(MBR_RelSec,512,values);
    19d2:	97 01       	movw	r18, r14
    19d4:	40 e0       	ldi	r20, 0x00	; 0
    19d6:	52 e0       	ldi	r21, 0x02	; 2
    19d8:	0e 94 61 15 	call	0x2ac2	; 0x2ac2 <Read_Sector>
	  Copy_String_to_Buffer(Mnt_Drv_2,0,prnt_bffr);
    19dc:	40 2f       	mov	r20, r16
    19de:	51 2f       	mov	r21, r17
    19e0:	60 e0       	ldi	r22, 0x00	; 0
    19e2:	84 e0       	ldi	r24, 0x04	; 4
    19e4:	91 e1       	ldi	r25, 0x11	; 17
    19e6:	0e 94 2e 1d 	call	0x3a5c	; 0x3a5c <Copy_String_to_Buffer>
	  UART_Transmit_String(&UART1,0,prnt_bffr);
    19ea:	40 2f       	mov	r20, r16
    19ec:	51 2f       	mov	r21, r17
    19ee:	60 e0       	ldi	r22, 0x00	; 0
    19f0:	88 ec       	ldi	r24, 0xC8	; 200
    19f2:	90 e0       	ldi	r25, 0x00	; 0
    19f4:	0e 94 4e 1d 	call	0x3a9c	; 0x3a9c <UART_Transmit_String>
	  sprintf(prnt_bffr,"%lu\n\r",MBR_RelSec);
    19f8:	bc 81       	ldd	r27, Y+4	; 0x04
    19fa:	bf 93       	push	r27
    19fc:	eb 81       	ldd	r30, Y+3	; 0x03
    19fe:	ef 93       	push	r30
    1a00:	fa 81       	ldd	r31, Y+2	; 0x02
    1a02:	ff 93       	push	r31
    1a04:	29 81       	ldd	r18, Y+1	; 0x01
    1a06:	2f 93       	push	r18
    1a08:	8a e3       	ldi	r24, 0x3A	; 58
    1a0a:	91 e0       	ldi	r25, 0x01	; 1
    1a0c:	9f 93       	push	r25
    1a0e:	8f 93       	push	r24
    1a10:	1f 93       	push	r17
    1a12:	0f 93       	push	r16
    1a14:	0e 94 14 1e 	call	0x3c28	; 0x3c28 <sprintf>
	  UART_Transmit_String(&UART1,0,prnt_bffr);
    1a18:	40 2f       	mov	r20, r16
    1a1a:	51 2f       	mov	r21, r17
    1a1c:	60 e0       	ldi	r22, 0x00	; 0
    1a1e:	88 ec       	ldi	r24, 0xC8	; 200
    1a20:	90 e0       	ldi	r25, 0x00	; 0
    1a22:	0e 94 4e 1d 	call	0x3a9c	; 0x3a9c <UART_Transmit_String>
	  temp8=read_value_8(0,values); 
   }
   if((temp8!=0xEB)&&(temp8!=0xE9))
    1a26:	d7 01       	movw	r26, r14
    1a28:	8c 91       	ld	r24, X
    1a2a:	8d 7f       	andi	r24, 0xFD	; 253
    1a2c:	0f b6       	in	r0, 0x3f	; 63
    1a2e:	f8 94       	cli
    1a30:	de bf       	out	0x3e, r29	; 62
    1a32:	0f be       	out	0x3f, r0	; 63
    1a34:	cd bf       	out	0x3d, r28	; 61
    1a36:	89 3e       	cpi	r24, 0xE9	; 233
    1a38:	a1 f0       	breq	.+40     	; 0x1a62 <Mount_Drive+0x120>
   {
      Copy_String_to_Buffer(Mnt_Drv_3,0,prnt_bffr);
    1a3a:	40 2f       	mov	r20, r16
    1a3c:	51 2f       	mov	r21, r17
    1a3e:	60 e0       	ldi	r22, 0x00	; 0
    1a40:	86 ef       	ldi	r24, 0xF6	; 246
    1a42:	90 e1       	ldi	r25, 0x10	; 16
    1a44:	0e 94 2e 1d 	call	0x3a5c	; 0x3a5c <Copy_String_to_Buffer>
      UART_Transmit_String(&UART1,0,prnt_bffr);
    1a48:	40 2f       	mov	r20, r16
    1a4a:	51 2f       	mov	r21, r17
    1a4c:	60 e0       	ldi	r22, 0x00	; 0
    1a4e:	88 ec       	ldi	r24, 0xC8	; 200
    1a50:	90 e0       	ldi	r25, 0x00	; 0
    1a52:	0e 94 4e 1d 	call	0x3a9c	; 0x3a9c <UART_Transmit_String>
	  //printf("Disk Error!\n\r");
	  return Disk_Error;
    1a56:	80 ef       	ldi	r24, 0xF0	; 240
    1a58:	ce c1       	rjmp	.+924    	; 0x1df6 <Mount_Drive+0x4b4>
  uint8_t NumFAT, temp8;
  uint8_t *values,*prnt_bffr;
  FS_values_t * Drive_p;

   Drive_p=Export_Drive_values();
   MBR_RelSec=0;
    1a5a:	19 82       	std	Y+1, r1	; 0x01
    1a5c:	1a 82       	std	Y+2, r1	; 0x02
    1a5e:	1b 82       	std	Y+3, r1	; 0x03
    1a60:	1c 82       	std	Y+4, r1	; 0x04
      Copy_String_to_Buffer(Mnt_Drv_3,0,prnt_bffr);
      UART_Transmit_String(&UART1,0,prnt_bffr);
	  //printf("Disk Error!\n\r");
	  return Disk_Error;
   }
   Drive_p->BytesPerSec=read_value_16(BPB_BytesPerSector,values);
    1a62:	b7 01       	movw	r22, r14
    1a64:	8b e0       	ldi	r24, 0x0B	; 11
    1a66:	90 e0       	ldi	r25, 0x00	; 0
    1a68:	0e 94 77 0c 	call	0x18ee	; 0x18ee <read_value_16>
    1a6c:	6c 01       	movw	r12, r24
    1a6e:	ad 85       	ldd	r26, Y+13	; 0x0d
    1a70:	be 85       	ldd	r27, Y+14	; 0x0e
    1a72:	15 96       	adiw	r26, 0x05	; 5
    1a74:	9c 93       	st	X, r25
    1a76:	8e 93       	st	-X, r24
    1a78:	14 97       	sbiw	r26, 0x04	; 4
   Drive_p->BytesPerSecShift=0;
    1a7a:	12 96       	adiw	r26, 0x02	; 2
    1a7c:	1c 92       	st	X, r1
   temp16=Drive_p->BytesPerSec;
   while(temp16!=0x01)
    1a7e:	81 30       	cpi	r24, 0x01	; 1
    1a80:	91 05       	cpc	r25, r1
    1a82:	79 f0       	breq	.+30     	; 0x1aa2 <Mount_Drive+0x160>
    1a84:	21 e0       	ldi	r18, 0x01	; 1
    1a86:	01 c0       	rjmp	.+2      	; 0x1a8a <Mount_Drive+0x148>
    1a88:	23 2f       	mov	r18, r19
   {
      Drive_p->BytesPerSecShift++;
      temp16=temp16>>1;
    1a8a:	96 95       	lsr	r25
    1a8c:	87 95       	ror	r24
    1a8e:	31 e0       	ldi	r19, 0x01	; 1
    1a90:	32 0f       	add	r19, r18
	  return Disk_Error;
   }
   Drive_p->BytesPerSec=read_value_16(BPB_BytesPerSector,values);
   Drive_p->BytesPerSecShift=0;
   temp16=Drive_p->BytesPerSec;
   while(temp16!=0x01)
    1a92:	81 30       	cpi	r24, 0x01	; 1
    1a94:	91 05       	cpc	r25, r1
    1a96:	c1 f7       	brne	.-16     	; 0x1a88 <Mount_Drive+0x146>
    1a98:	4d 85       	ldd	r20, Y+13	; 0x0d
    1a9a:	5e 85       	ldd	r21, Y+14	; 0x0e
    1a9c:	da 01       	movw	r26, r20
    1a9e:	12 96       	adiw	r26, 0x02	; 2
    1aa0:	2c 93       	st	X, r18
uint8_t read_value_8(uint16_t offset, uint8_t * array_name)
{
   uint8_t return_val;
   uint8_t prnt_bffr[15];
   offset&=0x1FF;  // limit offset to 0 to 511
   return_val=*(array_name+offset);
    1aa2:	f7 01       	movw	r30, r14
    1aa4:	35 84       	ldd	r3, Z+13	; 0x0d
   while(temp16!=0x01)
   {
      Drive_p->BytesPerSecShift++;
      temp16=temp16>>1;
   }
   Drive_p->SecPerClus=read_value_8(BPB_SectorsPerCluster,values);
    1aa6:	ad 85       	ldd	r26, Y+13	; 0x0d
    1aa8:	be 85       	ldd	r27, Y+14	; 0x0e
    1aaa:	3c 92       	st	X, r3
   RsvdSecCnt=read_value_16(BPB_RsvdSectorCount,values);
    1aac:	b7 01       	movw	r22, r14
    1aae:	8e e0       	ldi	r24, 0x0E	; 14
    1ab0:	90 e0       	ldi	r25, 0x00	; 0
    1ab2:	0e 94 77 0c 	call	0x18ee	; 0x18ee <read_value_16>
    1ab6:	4c 01       	movw	r8, r24
uint8_t read_value_8(uint16_t offset, uint8_t * array_name)
{
   uint8_t return_val;
   uint8_t prnt_bffr[15];
   offset&=0x1FF;  // limit offset to 0 to 511
   return_val=*(array_name+offset);
    1ab8:	f7 01       	movw	r30, r14
    1aba:	20 88       	ldd	r2, Z+16	; 0x10
      temp16=temp16>>1;
   }
   Drive_p->SecPerClus=read_value_8(BPB_SectorsPerCluster,values);
   RsvdSecCnt=read_value_16(BPB_RsvdSectorCount,values);
   NumFAT=read_value_8(BPB_NumberFATs,values);
   RootEntCnt=read_value_16(BPB_RootEntryCount,values);
    1abc:	b7 01       	movw	r22, r14
    1abe:	81 e1       	ldi	r24, 0x11	; 17
    1ac0:	90 e0       	ldi	r25, 0x00	; 0
    1ac2:	0e 94 77 0c 	call	0x18ee	; 0x18ee <read_value_16>
    1ac6:	5c 01       	movw	r10, r24
   TotSec=read_value_16(BPB_TotalSectors16,values);
    1ac8:	b7 01       	movw	r22, r14
    1aca:	83 e1       	ldi	r24, 0x13	; 19
    1acc:	90 e0       	ldi	r25, 0x00	; 0
    1ace:	0e 94 77 0c 	call	0x18ee	; 0x18ee <read_value_16>
    1ad2:	9c 01       	movw	r18, r24
    1ad4:	40 e0       	ldi	r20, 0x00	; 0
    1ad6:	50 e0       	ldi	r21, 0x00	; 0
    1ad8:	2d 83       	std	Y+5, r18	; 0x05
    1ada:	3e 83       	std	Y+6, r19	; 0x06
    1adc:	4f 83       	std	Y+7, r20	; 0x07
    1ade:	58 87       	std	Y+8, r21	; 0x08
   if(TotSec==0) TotSec=read_value_32(BPB_TotalSectors32,values);
    1ae0:	23 2b       	or	r18, r19
    1ae2:	24 2b       	or	r18, r20
    1ae4:	25 2b       	or	r18, r21
    1ae6:	49 f4       	brne	.+18     	; 0x1afa <Mount_Drive+0x1b8>
    1ae8:	b7 01       	movw	r22, r14
    1aea:	80 e2       	ldi	r24, 0x20	; 32
    1aec:	90 e0       	ldi	r25, 0x00	; 0
    1aee:	0e 94 83 0c 	call	0x1906	; 0x1906 <read_value_32>
    1af2:	6d 83       	std	Y+5, r22	; 0x05
    1af4:	7e 83       	std	Y+6, r23	; 0x06
    1af6:	8f 83       	std	Y+7, r24	; 0x07
    1af8:	98 87       	std	Y+8, r25	; 0x08
   FATSz=read_value_16(BPB_FATsize16,values);
    1afa:	b7 01       	movw	r22, r14
    1afc:	86 e1       	ldi	r24, 0x16	; 22
    1afe:	90 e0       	ldi	r25, 0x00	; 0
    1b00:	0e 94 77 0c 	call	0x18ee	; 0x18ee <read_value_16>
    1b04:	2c 01       	movw	r4, r24
    1b06:	61 2c       	mov	r6, r1
    1b08:	71 2c       	mov	r7, r1
   if(FATSz==0)
    1b0a:	41 14       	cp	r4, r1
    1b0c:	51 04       	cpc	r5, r1
    1b0e:	61 04       	cpc	r6, r1
    1b10:	71 04       	cpc	r7, r1
    1b12:	89 f4       	brne	.+34     	; 0x1b36 <Mount_Drive+0x1f4>
   {
	  FATSz=read_value_32(BPB_FATsize32,values);
    1b14:	b7 01       	movw	r22, r14
    1b16:	84 e2       	ldi	r24, 0x24	; 36
    1b18:	90 e0       	ldi	r25, 0x00	; 0
    1b1a:	0e 94 83 0c 	call	0x1906	; 0x1906 <read_value_32>
    1b1e:	2b 01       	movw	r4, r22
    1b20:	3c 01       	movw	r6, r24
      RootClus=read_value_32(BPB_RootCluster,values);
    1b22:	b7 01       	movw	r22, r14
    1b24:	8c e2       	ldi	r24, 0x2C	; 44
    1b26:	90 e0       	ldi	r25, 0x00	; 0
    1b28:	0e 94 83 0c 	call	0x1906	; 0x1906 <read_value_32>
    1b2c:	69 87       	std	Y+9, r22	; 0x09
    1b2e:	7a 87       	std	Y+10, r23	; 0x0a
    1b30:	8b 87       	std	Y+11, r24	; 0x0b
    1b32:	9c 87       	std	Y+12, r25	; 0x0c
    1b34:	04 c0       	rjmp	.+8      	; 0x1b3e <Mount_Drive+0x1fc>
  uint8_t *values,*prnt_bffr;
  FS_values_t * Drive_p;

   Drive_p=Export_Drive_values();
   MBR_RelSec=0;
   RootClus=0;
    1b36:	19 86       	std	Y+9, r1	; 0x09
    1b38:	1a 86       	std	Y+10, r1	; 0x0a
    1b3a:	1b 86       	std	Y+11, r1	; 0x0b
    1b3c:	1c 86       	std	Y+12, r1	; 0x0c
   if(FATSz==0)
   {
	  FATSz=read_value_32(BPB_FATsize32,values);
      RootClus=read_value_32(BPB_RootCluster,values);
   }
   Drive_p->RootDirSecs=((RootEntCnt * 32) + (Drive_p->BytesPerSec - 1))/Drive_p->BytesPerSec;
    1b3e:	c5 01       	movw	r24, r10
    1b40:	88 0f       	add	r24, r24
    1b42:	99 1f       	adc	r25, r25
    1b44:	82 95       	swap	r24
    1b46:	92 95       	swap	r25
    1b48:	90 7f       	andi	r25, 0xF0	; 240
    1b4a:	98 27       	eor	r25, r24
    1b4c:	80 7f       	andi	r24, 0xF0	; 240
    1b4e:	98 27       	eor	r25, r24
    1b50:	96 01       	movw	r18, r12
    1b52:	21 50       	subi	r18, 0x01	; 1
    1b54:	31 09       	sbc	r19, r1
    1b56:	82 0f       	add	r24, r18
    1b58:	93 1f       	adc	r25, r19
    1b5a:	b6 01       	movw	r22, r12
    1b5c:	0e 94 88 1d 	call	0x3b10	; 0x3b10 <__udivmodhi4>
    1b60:	6b 01       	movw	r12, r22
    1b62:	e1 2c       	mov	r14, r1
    1b64:	f1 2c       	mov	r15, r1
    1b66:	ad 85       	ldd	r26, Y+13	; 0x0d
    1b68:	be 85       	ldd	r27, Y+14	; 0x0e
    1b6a:	52 96       	adiw	r26, 0x12	; 18
    1b6c:	cd 92       	st	X+, r12
    1b6e:	dd 92       	st	X+, r13
    1b70:	ed 92       	st	X+, r14
    1b72:	fc 92       	st	X, r15
    1b74:	55 97       	sbiw	r26, 0x15	; 21
   DataSec=TotSec-(RsvdSecCnt+(NumFAT*FATSz)+Drive_p->RootDirSecs);
    1b76:	a1 2c       	mov	r10, r1
    1b78:	b1 2c       	mov	r11, r1
    1b7a:	a2 2d       	mov	r26, r2
    1b7c:	b0 e0       	ldi	r27, 0x00	; 0
    1b7e:	a3 01       	movw	r20, r6
    1b80:	92 01       	movw	r18, r4
    1b82:	0e 94 be 1d 	call	0x3b7c	; 0x3b7c <__muluhisi3>
    1b86:	2b 01       	movw	r4, r22
    1b88:	3c 01       	movw	r6, r24
   CntClus=DataSec/Drive_p->SecPerClus;
    1b8a:	c8 0c       	add	r12, r8
    1b8c:	d9 1c       	adc	r13, r9
    1b8e:	ea 1c       	adc	r14, r10
    1b90:	fb 1c       	adc	r15, r11
    1b92:	8d 81       	ldd	r24, Y+5	; 0x05
    1b94:	9e 81       	ldd	r25, Y+6	; 0x06
    1b96:	af 81       	ldd	r26, Y+7	; 0x07
    1b98:	b8 85       	ldd	r27, Y+8	; 0x08
    1b9a:	8c 19       	sub	r24, r12
    1b9c:	9d 09       	sbc	r25, r13
    1b9e:	ae 09       	sbc	r26, r14
    1ba0:	bf 09       	sbc	r27, r15
    1ba2:	bc 01       	movw	r22, r24
    1ba4:	cd 01       	movw	r24, r26
    1ba6:	64 19       	sub	r22, r4
    1ba8:	75 09       	sbc	r23, r5
    1baa:	86 09       	sbc	r24, r6
    1bac:	97 09       	sbc	r25, r7
    1bae:	23 2d       	mov	r18, r3
    1bb0:	30 e0       	ldi	r19, 0x00	; 0
    1bb2:	40 e0       	ldi	r20, 0x00	; 0
    1bb4:	50 e0       	ldi	r21, 0x00	; 0
    1bb6:	0e 94 9c 1d 	call	0x3b38	; 0x3b38 <__udivmodsi4>
    1bba:	2d 83       	std	Y+5, r18	; 0x05
    1bbc:	3e 83       	std	Y+6, r19	; 0x06
    1bbe:	4f 83       	std	Y+7, r20	; 0x07
    1bc0:	58 87       	std	Y+8, r21	; 0x08
   Drive_p->StartofFAT=RsvdSecCnt+MBR_RelSec;
    1bc2:	89 81       	ldd	r24, Y+1	; 0x01
    1bc4:	9a 81       	ldd	r25, Y+2	; 0x02
    1bc6:	ab 81       	ldd	r26, Y+3	; 0x03
    1bc8:	bc 81       	ldd	r27, Y+4	; 0x04
    1bca:	88 0d       	add	r24, r8
    1bcc:	99 1d       	adc	r25, r9
    1bce:	aa 1d       	adc	r26, r10
    1bd0:	bb 1d       	adc	r27, r11
    1bd2:	ed 85       	ldd	r30, Y+13	; 0x0d
    1bd4:	fe 85       	ldd	r31, Y+14	; 0x0e
    1bd6:	86 87       	std	Z+14, r24	; 0x0e
    1bd8:	97 87       	std	Z+15, r25	; 0x0f
    1bda:	a0 8b       	std	Z+16, r26	; 0x10
    1bdc:	b1 8b       	std	Z+17, r27	; 0x11
   Copy_String_to_Buffer(Mnt_Drv_6,0,prnt_bffr);
    1bde:	40 2f       	mov	r20, r16
    1be0:	51 2f       	mov	r21, r17
    1be2:	60 e0       	ldi	r22, 0x00	; 0
    1be4:	80 ec       	ldi	r24, 0xC0	; 192
    1be6:	90 e1       	ldi	r25, 0x10	; 16
    1be8:	0e 94 2e 1d 	call	0x3a5c	; 0x3a5c <Copy_String_to_Buffer>
   UART_Transmit_String(&UART1,0,prnt_bffr);
    1bec:	40 2f       	mov	r20, r16
    1bee:	51 2f       	mov	r21, r17
    1bf0:	60 e0       	ldi	r22, 0x00	; 0
    1bf2:	88 ec       	ldi	r24, 0xC8	; 200
    1bf4:	90 e0       	ldi	r25, 0x00	; 0
    1bf6:	0e 94 4e 1d 	call	0x3a9c	; 0x3a9c <UART_Transmit_String>
   sprintf(prnt_bffr,"%lu\n\r",Drive_p->StartofFAT);
    1bfa:	ad 85       	ldd	r26, Y+13	; 0x0d
    1bfc:	be 85       	ldd	r27, Y+14	; 0x0e
    1bfe:	51 96       	adiw	r26, 0x11	; 17
    1c00:	8c 91       	ld	r24, X
    1c02:	51 97       	sbiw	r26, 0x11	; 17
    1c04:	8f 93       	push	r24
    1c06:	50 96       	adiw	r26, 0x10	; 16
    1c08:	8c 91       	ld	r24, X
    1c0a:	50 97       	sbiw	r26, 0x10	; 16
    1c0c:	8f 93       	push	r24
    1c0e:	1f 96       	adiw	r26, 0x0f	; 15
    1c10:	8c 91       	ld	r24, X
    1c12:	1f 97       	sbiw	r26, 0x0f	; 15
    1c14:	8f 93       	push	r24
    1c16:	1e 96       	adiw	r26, 0x0e	; 14
    1c18:	8c 91       	ld	r24, X
    1c1a:	8f 93       	push	r24
    1c1c:	0f 2e       	mov	r0, r31
    1c1e:	fa e3       	ldi	r31, 0x3A	; 58
    1c20:	ef 2e       	mov	r14, r31
    1c22:	f1 e0       	ldi	r31, 0x01	; 1
    1c24:	ff 2e       	mov	r15, r31
    1c26:	f0 2d       	mov	r31, r0
    1c28:	ff 92       	push	r15
    1c2a:	ef 92       	push	r14
    1c2c:	1f 93       	push	r17
    1c2e:	0f 93       	push	r16
    1c30:	0e 94 14 1e 	call	0x3c28	; 0x3c28 <sprintf>
   UART_Transmit_String(&UART1,0,prnt_bffr);
    1c34:	40 2f       	mov	r20, r16
    1c36:	51 2f       	mov	r21, r17
    1c38:	60 e0       	ldi	r22, 0x00	; 0
    1c3a:	88 ec       	ldi	r24, 0xC8	; 200
    1c3c:	90 e0       	ldi	r25, 0x00	; 0
    1c3e:	0e 94 4e 1d 	call	0x3a9c	; 0x3a9c <UART_Transmit_String>
   Drive_p->FirstDataSec=Drive_p->StartofFAT+(NumFAT*FATSz)+Drive_p->RootDirSecs;
    1c42:	ed 85       	ldd	r30, Y+13	; 0x0d
    1c44:	fe 85       	ldd	r31, Y+14	; 0x0e
    1c46:	46 85       	ldd	r20, Z+14	; 0x0e
    1c48:	57 85       	ldd	r21, Z+15	; 0x0f
    1c4a:	60 89       	ldd	r22, Z+16	; 0x10
    1c4c:	71 89       	ldd	r23, Z+17	; 0x11
    1c4e:	82 89       	ldd	r24, Z+18	; 0x12
    1c50:	93 89       	ldd	r25, Z+19	; 0x13
    1c52:	a4 89       	ldd	r26, Z+20	; 0x14
    1c54:	b5 89       	ldd	r27, Z+21	; 0x15
    1c56:	84 0f       	add	r24, r20
    1c58:	95 1f       	adc	r25, r21
    1c5a:	a6 1f       	adc	r26, r22
    1c5c:	b7 1f       	adc	r27, r23
    1c5e:	84 0d       	add	r24, r4
    1c60:	95 1d       	adc	r25, r5
    1c62:	a6 1d       	adc	r26, r6
    1c64:	b7 1d       	adc	r27, r7
    1c66:	82 87       	std	Z+10, r24	; 0x0a
    1c68:	93 87       	std	Z+11, r25	; 0x0b
    1c6a:	a4 87       	std	Z+12, r26	; 0x0c
    1c6c:	b5 87       	std	Z+13, r27	; 0x0d
   Copy_String_to_Buffer(Mnt_Drv_7,0,prnt_bffr);
    1c6e:	40 2f       	mov	r20, r16
    1c70:	51 2f       	mov	r21, r17
    1c72:	60 e0       	ldi	r22, 0x00	; 0
    1c74:	80 eb       	ldi	r24, 0xB0	; 176
    1c76:	90 e1       	ldi	r25, 0x10	; 16
    1c78:	0e 94 2e 1d 	call	0x3a5c	; 0x3a5c <Copy_String_to_Buffer>
   UART_Transmit_String(&UART1,0,prnt_bffr);
    1c7c:	40 2f       	mov	r20, r16
    1c7e:	51 2f       	mov	r21, r17
    1c80:	60 e0       	ldi	r22, 0x00	; 0
    1c82:	88 ec       	ldi	r24, 0xC8	; 200
    1c84:	90 e0       	ldi	r25, 0x00	; 0
    1c86:	0e 94 4e 1d 	call	0x3a9c	; 0x3a9c <UART_Transmit_String>
   sprintf(prnt_bffr,"%lu\n\r",Drive_p->FirstDataSec);
    1c8a:	ad 85       	ldd	r26, Y+13	; 0x0d
    1c8c:	be 85       	ldd	r27, Y+14	; 0x0e
    1c8e:	1d 96       	adiw	r26, 0x0d	; 13
    1c90:	8c 91       	ld	r24, X
    1c92:	1d 97       	sbiw	r26, 0x0d	; 13
    1c94:	8f 93       	push	r24
    1c96:	1c 96       	adiw	r26, 0x0c	; 12
    1c98:	8c 91       	ld	r24, X
    1c9a:	1c 97       	sbiw	r26, 0x0c	; 12
    1c9c:	8f 93       	push	r24
    1c9e:	1b 96       	adiw	r26, 0x0b	; 11
    1ca0:	8c 91       	ld	r24, X
    1ca2:	1b 97       	sbiw	r26, 0x0b	; 11
    1ca4:	8f 93       	push	r24
    1ca6:	1a 96       	adiw	r26, 0x0a	; 10
    1ca8:	8c 91       	ld	r24, X
    1caa:	8f 93       	push	r24
    1cac:	ff 92       	push	r15
    1cae:	ef 92       	push	r14
    1cb0:	1f 93       	push	r17
    1cb2:	0f 93       	push	r16
    1cb4:	0e 94 14 1e 	call	0x3c28	; 0x3c28 <sprintf>
   UART_Transmit_String(&UART1,0,prnt_bffr);
    1cb8:	40 2f       	mov	r20, r16
    1cba:	51 2f       	mov	r21, r17
    1cbc:	60 e0       	ldi	r22, 0x00	; 0
    1cbe:	88 ec       	ldi	r24, 0xC8	; 200
    1cc0:	90 e0       	ldi	r25, 0x00	; 0
    1cc2:	0e 94 4e 1d 	call	0x3a9c	; 0x3a9c <UART_Transmit_String>
   if(CntClus<65525)
    1cc6:	0f b6       	in	r0, 0x3f	; 63
    1cc8:	f8 94       	cli
    1cca:	de bf       	out	0x3e, r29	; 62
    1ccc:	0f be       	out	0x3f, r0	; 63
    1cce:	cd bf       	out	0x3d, r28	; 61
    1cd0:	2d 81       	ldd	r18, Y+5	; 0x05
    1cd2:	3e 81       	ldd	r19, Y+6	; 0x06
    1cd4:	4f 81       	ldd	r20, Y+7	; 0x07
    1cd6:	58 85       	ldd	r21, Y+8	; 0x08
    1cd8:	25 3f       	cpi	r18, 0xF5	; 245
    1cda:	3f 4f       	sbci	r19, 0xFF	; 255
    1cdc:	41 05       	cpc	r20, r1
    1cde:	51 05       	cpc	r21, r1
    1ce0:	30 f5       	brcc	.+76     	; 0x1d2e <Mount_Drive+0x3ec>
   {
     Drive_p->FATtype=FAT16;
    1ce2:	82 e0       	ldi	r24, 0x02	; 2
    1ce4:	ad 85       	ldd	r26, Y+13	; 0x0d
    1ce6:	be 85       	ldd	r27, Y+14	; 0x0e
    1ce8:	11 96       	adiw	r26, 0x01	; 1
    1cea:	8c 93       	st	X, r24
    1cec:	11 97       	sbiw	r26, 0x01	; 1
	 Drive_p->FATshift=FAT16_shift;
    1cee:	81 e0       	ldi	r24, 0x01	; 1
    1cf0:	13 96       	adiw	r26, 0x03	; 3
    1cf2:	8c 93       	st	X, r24
	 Copy_String_to_Buffer(Mnt_Drv_4,0,prnt_bffr);
    1cf4:	40 2f       	mov	r20, r16
    1cf6:	51 2f       	mov	r21, r17
    1cf8:	60 e0       	ldi	r22, 0x00	; 0
    1cfa:	82 ee       	ldi	r24, 0xE2	; 226
    1cfc:	90 e1       	ldi	r25, 0x10	; 16
    1cfe:	0e 94 2e 1d 	call	0x3a5c	; 0x3a5c <Copy_String_to_Buffer>
	 UART_Transmit_String(&UART1,0,prnt_bffr);
    1d02:	40 2f       	mov	r20, r16
    1d04:	51 2f       	mov	r21, r17
    1d06:	60 e0       	ldi	r22, 0x00	; 0
    1d08:	88 ec       	ldi	r24, 0xC8	; 200
    1d0a:	90 e0       	ldi	r25, 0x00	; 0
    1d0c:	0e 94 4e 1d 	call	0x3a9c	; 0x3a9c <UART_Transmit_String>
	 //printf("FAT16 Detected...\n\r");
	 Drive_p->FirstRootDirSec=Drive_p->StartofFAT+(NumFAT*FATSz);
    1d10:	ed 85       	ldd	r30, Y+13	; 0x0d
    1d12:	fe 85       	ldd	r31, Y+14	; 0x0e
    1d14:	86 85       	ldd	r24, Z+14	; 0x0e
    1d16:	97 85       	ldd	r25, Z+15	; 0x0f
    1d18:	a0 89       	ldd	r26, Z+16	; 0x10
    1d1a:	b1 89       	ldd	r27, Z+17	; 0x11
    1d1c:	48 0e       	add	r4, r24
    1d1e:	59 1e       	adc	r5, r25
    1d20:	6a 1e       	adc	r6, r26
    1d22:	7b 1e       	adc	r7, r27
    1d24:	46 82       	std	Z+6, r4	; 0x06
    1d26:	57 82       	std	Z+7, r5	; 0x07
    1d28:	60 86       	std	Z+8, r6	; 0x08
    1d2a:	71 86       	std	Z+9, r7	; 0x09
    1d2c:	30 c0       	rjmp	.+96     	; 0x1d8e <Mount_Drive+0x44c>
   }
   else
   {
     Drive_p->FATtype=FAT32;
    1d2e:	84 e0       	ldi	r24, 0x04	; 4
    1d30:	ed 85       	ldd	r30, Y+13	; 0x0d
    1d32:	fe 85       	ldd	r31, Y+14	; 0x0e
    1d34:	81 83       	std	Z+1, r24	; 0x01
	 Drive_p->FATshift=FAT32_shift;
    1d36:	82 e0       	ldi	r24, 0x02	; 2
    1d38:	83 83       	std	Z+3, r24	; 0x03
	 Copy_String_to_Buffer(Mnt_Drv_5,0,prnt_bffr);
    1d3a:	40 2f       	mov	r20, r16
    1d3c:	51 2f       	mov	r21, r17
    1d3e:	60 e0       	ldi	r22, 0x00	; 0
    1d40:	8e ec       	ldi	r24, 0xCE	; 206
    1d42:	90 e1       	ldi	r25, 0x10	; 16
    1d44:	0e 94 2e 1d 	call	0x3a5c	; 0x3a5c <Copy_String_to_Buffer>
	 UART_Transmit_String(&UART1,0,prnt_bffr);
    1d48:	40 2f       	mov	r20, r16
    1d4a:	51 2f       	mov	r21, r17
    1d4c:	60 e0       	ldi	r22, 0x00	; 0
    1d4e:	88 ec       	ldi	r24, 0xC8	; 200
    1d50:	90 e0       	ldi	r25, 0x00	; 0
    1d52:	0e 94 4e 1d 	call	0x3a9c	; 0x3a9c <UART_Transmit_String>
	 //printf("FAT32 Detected...\n\r");  
     Drive_p->FirstRootDirSec=((RootClus-2)*Drive_p->SecPerClus)+Drive_p->FirstDataSec;
    1d56:	29 85       	ldd	r18, Y+9	; 0x09
    1d58:	3a 85       	ldd	r19, Y+10	; 0x0a
    1d5a:	4b 85       	ldd	r20, Y+11	; 0x0b
    1d5c:	5c 85       	ldd	r21, Y+12	; 0x0c
    1d5e:	22 50       	subi	r18, 0x02	; 2
    1d60:	31 09       	sbc	r19, r1
    1d62:	41 09       	sbc	r20, r1
    1d64:	51 09       	sbc	r21, r1
    1d66:	ed 85       	ldd	r30, Y+13	; 0x0d
    1d68:	fe 85       	ldd	r31, Y+14	; 0x0e
    1d6a:	a0 81       	ld	r26, Z
    1d6c:	b0 e0       	ldi	r27, 0x00	; 0
    1d6e:	0e 94 be 1d 	call	0x3b7c	; 0x3b7c <__muluhisi3>
    1d72:	c2 84       	ldd	r12, Z+10	; 0x0a
    1d74:	d3 84       	ldd	r13, Z+11	; 0x0b
    1d76:	e4 84       	ldd	r14, Z+12	; 0x0c
    1d78:	f5 84       	ldd	r15, Z+13	; 0x0d
    1d7a:	dc 01       	movw	r26, r24
    1d7c:	cb 01       	movw	r24, r22
    1d7e:	8c 0d       	add	r24, r12
    1d80:	9d 1d       	adc	r25, r13
    1d82:	ae 1d       	adc	r26, r14
    1d84:	bf 1d       	adc	r27, r15
    1d86:	86 83       	std	Z+6, r24	; 0x06
    1d88:	97 83       	std	Z+7, r25	; 0x07
    1d8a:	a0 87       	std	Z+8, r26	; 0x08
    1d8c:	b1 87       	std	Z+9, r27	; 0x09
   }
   Copy_String_to_Buffer(Mnt_Drv_8,0,prnt_bffr);
    1d8e:	40 2f       	mov	r20, r16
    1d90:	51 2f       	mov	r21, r17
    1d92:	60 e0       	ldi	r22, 0x00	; 0
    1d94:	8c e9       	ldi	r24, 0x9C	; 156
    1d96:	90 e1       	ldi	r25, 0x10	; 16
    1d98:	0e 94 2e 1d 	call	0x3a5c	; 0x3a5c <Copy_String_to_Buffer>
   UART_Transmit_String(&UART1,0,prnt_bffr);
    1d9c:	40 2f       	mov	r20, r16
    1d9e:	51 2f       	mov	r21, r17
    1da0:	60 e0       	ldi	r22, 0x00	; 0
    1da2:	88 ec       	ldi	r24, 0xC8	; 200
    1da4:	90 e0       	ldi	r25, 0x00	; 0
    1da6:	0e 94 4e 1d 	call	0x3a9c	; 0x3a9c <UART_Transmit_String>
   sprintf(prnt_bffr,"%lu\n\r",Drive_p->FirstRootDirSec);
    1daa:	ad 85       	ldd	r26, Y+13	; 0x0d
    1dac:	be 85       	ldd	r27, Y+14	; 0x0e
    1dae:	19 96       	adiw	r26, 0x09	; 9
    1db0:	8c 91       	ld	r24, X
    1db2:	19 97       	sbiw	r26, 0x09	; 9
    1db4:	8f 93       	push	r24
    1db6:	18 96       	adiw	r26, 0x08	; 8
    1db8:	8c 91       	ld	r24, X
    1dba:	18 97       	sbiw	r26, 0x08	; 8
    1dbc:	8f 93       	push	r24
    1dbe:	17 96       	adiw	r26, 0x07	; 7
    1dc0:	8c 91       	ld	r24, X
    1dc2:	17 97       	sbiw	r26, 0x07	; 7
    1dc4:	8f 93       	push	r24
    1dc6:	16 96       	adiw	r26, 0x06	; 6
    1dc8:	8c 91       	ld	r24, X
    1dca:	8f 93       	push	r24
    1dcc:	8a e3       	ldi	r24, 0x3A	; 58
    1dce:	91 e0       	ldi	r25, 0x01	; 1
    1dd0:	9f 93       	push	r25
    1dd2:	8f 93       	push	r24
    1dd4:	1f 93       	push	r17
    1dd6:	0f 93       	push	r16
    1dd8:	0e 94 14 1e 	call	0x3c28	; 0x3c28 <sprintf>
   UART_Transmit_String(&UART1,0,prnt_bffr);
    1ddc:	40 2f       	mov	r20, r16
    1dde:	51 2f       	mov	r21, r17
    1de0:	60 e0       	ldi	r22, 0x00	; 0
    1de2:	88 ec       	ldi	r24, 0xC8	; 200
    1de4:	90 e0       	ldi	r25, 0x00	; 0
    1de6:	0e 94 4e 1d 	call	0x3a9c	; 0x3a9c <UART_Transmit_String>
   return No_Disk_Error;
    1dea:	0f b6       	in	r0, 0x3f	; 63
    1dec:	f8 94       	cli
    1dee:	de bf       	out	0x3e, r29	; 62
    1df0:	0f be       	out	0x3f, r0	; 63
    1df2:	cd bf       	out	0x3d, r28	; 61
    1df4:	80 e0       	ldi	r24, 0x00	; 0
}
    1df6:	2e 96       	adiw	r28, 0x0e	; 14
    1df8:	0f b6       	in	r0, 0x3f	; 63
    1dfa:	f8 94       	cli
    1dfc:	de bf       	out	0x3e, r29	; 62
    1dfe:	0f be       	out	0x3f, r0	; 63
    1e00:	cd bf       	out	0x3d, r28	; 61
    1e02:	df 91       	pop	r29
    1e04:	cf 91       	pop	r28
    1e06:	1f 91       	pop	r17
    1e08:	0f 91       	pop	r16
    1e0a:	ff 90       	pop	r15
    1e0c:	ef 90       	pop	r14
    1e0e:	df 90       	pop	r13
    1e10:	cf 90       	pop	r12
    1e12:	bf 90       	pop	r11
    1e14:	af 90       	pop	r10
    1e16:	9f 90       	pop	r9
    1e18:	8f 90       	pop	r8
    1e1a:	7f 90       	pop	r7
    1e1c:	6f 90       	pop	r6
    1e1e:	5f 90       	pop	r5
    1e20:	4f 90       	pop	r4
    1e22:	3f 90       	pop	r3
    1e24:	2f 90       	pop	r2
    1e26:	08 95       	ret

00001e28 <First_Sector>:
INPUT: uint32_t Cluster number
RETURNS: uint32_t sector number 
CAUTION: 
************************************************************************/
uint32_t First_Sector (uint32_t Cluster_num)
{
    1e28:	cf 92       	push	r12
    1e2a:	df 92       	push	r13
    1e2c:	ef 92       	push	r14
    1e2e:	ff 92       	push	r15
    1e30:	6b 01       	movw	r12, r22
    1e32:	7c 01       	movw	r14, r24
   uint32_t Sector_num;
   FS_values_t * Drive_p;

   Drive_p=Export_Drive_values();
    1e34:	0e 94 d8 09 	call	0x13b0	; 0x13b0 <Export_Drive_values>
    1e38:	fc 01       	movw	r30, r24
   if(Cluster_num==0) 
    1e3a:	c1 14       	cp	r12, r1
    1e3c:	d1 04       	cpc	r13, r1
    1e3e:	e1 04       	cpc	r14, r1
    1e40:	f1 04       	cpc	r15, r1
    1e42:	29 f4       	brne	.+10     	; 0x1e4e <First_Sector+0x26>
   {
       Sector_num=Drive_p->FirstRootDirSec;
    1e44:	66 81       	ldd	r22, Z+6	; 0x06
    1e46:	77 81       	ldd	r23, Z+7	; 0x07
    1e48:	80 85       	ldd	r24, Z+8	; 0x08
    1e4a:	91 85       	ldd	r25, Z+9	; 0x09
    1e4c:	12 c0       	rjmp	.+36     	; 0x1e72 <First_Sector+0x4a>
   }
   else
   {
       Sector_num=((Cluster_num-2)*Drive_p->SecPerClus)+Drive_p->FirstDataSec;
    1e4e:	a7 01       	movw	r20, r14
    1e50:	96 01       	movw	r18, r12
    1e52:	22 50       	subi	r18, 0x02	; 2
    1e54:	31 09       	sbc	r19, r1
    1e56:	41 09       	sbc	r20, r1
    1e58:	51 09       	sbc	r21, r1
    1e5a:	a0 81       	ld	r26, Z
    1e5c:	b0 e0       	ldi	r27, 0x00	; 0
    1e5e:	0e 94 be 1d 	call	0x3b7c	; 0x3b7c <__muluhisi3>
    1e62:	c2 84       	ldd	r12, Z+10	; 0x0a
    1e64:	d3 84       	ldd	r13, Z+11	; 0x0b
    1e66:	e4 84       	ldd	r14, Z+12	; 0x0c
    1e68:	f5 84       	ldd	r15, Z+13	; 0x0d
    1e6a:	6c 0d       	add	r22, r12
    1e6c:	7d 1d       	adc	r23, r13
    1e6e:	8e 1d       	adc	r24, r14
    1e70:	9f 1d       	adc	r25, r15
   }
   return Sector_num;
}
    1e72:	ff 90       	pop	r15
    1e74:	ef 90       	pop	r14
    1e76:	df 90       	pop	r13
    1e78:	cf 90       	pop	r12
    1e7a:	08 95       	ret

00001e7c <Find_Next_Clus>:
CAUTION: 
************************************************************************/


uint32_t Find_Next_Clus(uint32_t Cluster_num, uint8_t * array_name)
{
    1e7c:	8f 92       	push	r8
    1e7e:	9f 92       	push	r9
    1e80:	af 92       	push	r10
    1e82:	bf 92       	push	r11
    1e84:	cf 92       	push	r12
    1e86:	df 92       	push	r13
    1e88:	ef 92       	push	r14
    1e8a:	ff 92       	push	r15
    1e8c:	0f 93       	push	r16
    1e8e:	1f 93       	push	r17
    1e90:	cf 93       	push	r28
    1e92:	df 93       	push	r29
    1e94:	6b 01       	movw	r12, r22
    1e96:	7c 01       	movw	r14, r24
    1e98:	8a 01       	movw	r16, r20
   uint32_t Sector, return_clus=0;
   uint16_t FAToffset;
   uint8_t * values;
   FS_values_t * Drive_p;

   Drive_p=Export_Drive_values();
    1e9a:	0e 94 d8 09 	call	0x13b0	; 0x13b0 <Export_Drive_values>
    1e9e:	ec 01       	movw	r28, r24
   values=array_name;
   Sector=(Cluster_num>>(Drive_p->BytesPerSecShift-Drive_p->FATshift))+Drive_p->StartofFAT;
   Read_Sector(Sector, Drive_p->BytesPerSec,values);
    1ea0:	4c 81       	ldd	r20, Y+4	; 0x04
    1ea2:	5d 81       	ldd	r21, Y+5	; 0x05
    1ea4:	8a 81       	ldd	r24, Y+2	; 0x02
    1ea6:	9b 81       	ldd	r25, Y+3	; 0x03
    1ea8:	89 1b       	sub	r24, r25
    1eaa:	46 01       	movw	r8, r12
    1eac:	57 01       	movw	r10, r14
    1eae:	04 c0       	rjmp	.+8      	; 0x1eb8 <Find_Next_Clus+0x3c>
    1eb0:	b6 94       	lsr	r11
    1eb2:	a7 94       	ror	r10
    1eb4:	97 94       	ror	r9
    1eb6:	87 94       	ror	r8
    1eb8:	8a 95       	dec	r24
    1eba:	d2 f7       	brpl	.-12     	; 0x1eb0 <Find_Next_Clus+0x34>
    1ebc:	8e 85       	ldd	r24, Y+14	; 0x0e
    1ebe:	9f 85       	ldd	r25, Y+15	; 0x0f
    1ec0:	a8 89       	ldd	r26, Y+16	; 0x10
    1ec2:	b9 89       	ldd	r27, Y+17	; 0x11
    1ec4:	bc 01       	movw	r22, r24
    1ec6:	cd 01       	movw	r24, r26
    1ec8:	68 0d       	add	r22, r8
    1eca:	79 1d       	adc	r23, r9
    1ecc:	8a 1d       	adc	r24, r10
    1ece:	9b 1d       	adc	r25, r11
    1ed0:	98 01       	movw	r18, r16
    1ed2:	0e 94 61 15 	call	0x2ac2	; 0x2ac2 <Read_Sector>
   FAToffset=(uint16_t)((Cluster_num<<Drive_p->FATshift)&(Drive_p->BytesPerSec-1));
    1ed6:	0b 80       	ldd	r0, Y+3	; 0x03
    1ed8:	04 c0       	rjmp	.+8      	; 0x1ee2 <Find_Next_Clus+0x66>
    1eda:	cc 0c       	add	r12, r12
    1edc:	dd 1c       	adc	r13, r13
    1ede:	ee 1c       	adc	r14, r14
    1ee0:	ff 1c       	adc	r15, r15
    1ee2:	0a 94       	dec	r0
    1ee4:	d2 f7       	brpl	.-12     	; 0x1eda <Find_Next_Clus+0x5e>
    1ee6:	8c 81       	ldd	r24, Y+4	; 0x04
    1ee8:	9d 81       	ldd	r25, Y+5	; 0x05
    1eea:	01 97       	sbiw	r24, 0x01	; 1
    1eec:	c8 22       	and	r12, r24
    1eee:	d9 22       	and	r13, r25
   if(Drive_p->FATtype==FAT32)    // FAT32
    1ef0:	89 81       	ldd	r24, Y+1	; 0x01
    1ef2:	84 30       	cpi	r24, 0x04	; 4
    1ef4:	31 f4       	brne	.+12     	; 0x1f02 <Find_Next_Clus+0x86>
   {
       return_clus=(read_value_32(FAToffset,values)&0x0FFFFFFF);
    1ef6:	b8 01       	movw	r22, r16
    1ef8:	c6 01       	movw	r24, r12
    1efa:	0e 94 83 0c 	call	0x1906	; 0x1906 <read_value_32>
    1efe:	9f 70       	andi	r25, 0x0F	; 15
    1f00:	17 c0       	rjmp	.+46     	; 0x1f30 <Find_Next_Clus+0xb4>
   }
   else if(Drive_p->FATtype==FAT16)    // FAT16
    1f02:	82 30       	cpi	r24, 0x02	; 2
    1f04:	91 f4       	brne	.+36     	; 0x1f2a <Find_Next_Clus+0xae>
   {
       return_clus=(uint32_t)(read_value_16(FAToffset,values));
    1f06:	b8 01       	movw	r22, r16
    1f08:	c6 01       	movw	r24, r12
    1f0a:	0e 94 77 0c 	call	0x18ee	; 0x18ee <read_value_16>
    1f0e:	bc 01       	movw	r22, r24
    1f10:	80 e0       	ldi	r24, 0x00	; 0
    1f12:	90 e0       	ldi	r25, 0x00	; 0
	   if(return_clus==0x0000FFFF) return_clus=0x0FFFFFFF; // EOF for FAT16 changed to EOF for FAT32
    1f14:	6f 3f       	cpi	r22, 0xFF	; 255
    1f16:	2f ef       	ldi	r18, 0xFF	; 255
    1f18:	72 07       	cpc	r23, r18
    1f1a:	81 05       	cpc	r24, r1
    1f1c:	91 05       	cpc	r25, r1
    1f1e:	41 f4       	brne	.+16     	; 0x1f30 <Find_Next_Clus+0xb4>
    1f20:	6f ef       	ldi	r22, 0xFF	; 255
    1f22:	7f ef       	ldi	r23, 0xFF	; 255
    1f24:	8f ef       	ldi	r24, 0xFF	; 255
    1f26:	9f e0       	ldi	r25, 0x0F	; 15
    1f28:	03 c0       	rjmp	.+6      	; 0x1f30 <Find_Next_Clus+0xb4>
************************************************************************/


uint32_t Find_Next_Clus(uint32_t Cluster_num, uint8_t * array_name)
{
   uint32_t Sector, return_clus=0;
    1f2a:	60 e0       	ldi	r22, 0x00	; 0
    1f2c:	70 e0       	ldi	r23, 0x00	; 0
    1f2e:	cb 01       	movw	r24, r22
   {
       return_clus=(uint32_t)(read_value_16(FAToffset,values));
	   if(return_clus==0x0000FFFF) return_clus=0x0FFFFFFF; // EOF for FAT16 changed to EOF for FAT32
   }
   return return_clus;
}
    1f30:	df 91       	pop	r29
    1f32:	cf 91       	pop	r28
    1f34:	1f 91       	pop	r17
    1f36:	0f 91       	pop	r16
    1f38:	ff 90       	pop	r15
    1f3a:	ef 90       	pop	r14
    1f3c:	df 90       	pop	r13
    1f3e:	cf 90       	pop	r12
    1f40:	bf 90       	pop	r11
    1f42:	af 90       	pop	r10
    1f44:	9f 90       	pop	r9
    1f46:	8f 90       	pop	r8
    1f48:	08 95       	ret

00001f4a <Open_File>:
CAUTION: 
************************************************************************/


uint8_t Open_File(uint32_t Cluster_num, uint8_t * array_in)
{
    1f4a:	2f 92       	push	r2
    1f4c:	3f 92       	push	r3
    1f4e:	4f 92       	push	r4
    1f50:	5f 92       	push	r5
    1f52:	6f 92       	push	r6
    1f54:	7f 92       	push	r7
    1f56:	8f 92       	push	r8
    1f58:	9f 92       	push	r9
    1f5a:	af 92       	push	r10
    1f5c:	bf 92       	push	r11
    1f5e:	cf 92       	push	r12
    1f60:	df 92       	push	r13
    1f62:	ef 92       	push	r14
    1f64:	ff 92       	push	r15
    1f66:	0f 93       	push	r16
    1f68:	1f 93       	push	r17
    1f6a:	cf 93       	push	r28
    1f6c:	df 93       	push	r29
    1f6e:	cd b7       	in	r28, 0x3d	; 61
    1f70:	de b7       	in	r29, 0x3e	; 62
    1f72:	28 97       	sbiw	r28, 0x08	; 8
    1f74:	0f b6       	in	r0, 0x3f	; 63
    1f76:	f8 94       	cli
    1f78:	de bf       	out	0x3e, r29	; 62
    1f7a:	0f be       	out	0x3f, r0	; 63
    1f7c:	cd bf       	out	0x3d, r28	; 61
    1f7e:	2b 01       	movw	r4, r22
    1f80:	3c 01       	movw	r6, r24
    1f82:	5e 83       	std	Y+6, r21	; 0x06
    1f84:	4d 83       	std	Y+5, r20	; 0x05
   uint8_t temp8;
   uint8_t * values;
   uint8_t *prnt_bffr;
   FS_values_t * Drive_p;

   Drive_p=Export_Drive_values();
    1f86:	0e 94 d8 09 	call	0x13b0	; 0x13b0 <Export_Drive_values>
    1f8a:	98 87       	std	Y+8, r25	; 0x08
    1f8c:	8f 83       	std	Y+7, r24	; 0x07
   prnt_bffr=Export_print_buffer();
    1f8e:	0e 94 2b 1d 	call	0x3a56	; 0x3a56 <Export_print_buffer>
    1f92:	18 2f       	mov	r17, r24
    1f94:	09 2f       	mov	r16, r25
   values=array_in;
   SecOffset=0;
    1f96:	c1 2c       	mov	r12, r1
    1f98:	d1 2c       	mov	r13, r1
    1f9a:	76 01       	movw	r14, r12
************************************************************************/


uint8_t Open_File(uint32_t Cluster_num, uint8_t * array_in)
{
   uint32_t Sector=0, SecOffset;
    1f9c:	19 82       	std	Y+1, r1	; 0x01
    1f9e:	1a 82       	std	Y+2, r1	; 0x02
    1fa0:	1b 82       	std	Y+3, r1	; 0x03
    1fa2:	1c 82       	std	Y+4, r1	; 0x04
   
   
   do
   {
      if(SecOffset==0) Sector=((Cluster_num-2)*Drive_p->SecPerClus)+Drive_p->FirstDataSec;
      sprintf(prnt_bffr,"Cluster#: %9lu,  Sector#: %9lu,  SecOffset: %lu\n\r",Cluster_num,(Sector+SecOffset),SecOffset);
    1fa4:	0f 2e       	mov	r0, r31
    1fa6:	fe e0       	ldi	r31, 0x0E	; 14
    1fa8:	2f 2e       	mov	r2, r31
    1faa:	f1 e0       	ldi	r31, 0x01	; 1
    1fac:	3f 2e       	mov	r3, r31
    1fae:	f0 2d       	mov	r31, r0
   SecOffset=0;
   
   
   do
   {
      if(SecOffset==0) Sector=((Cluster_num-2)*Drive_p->SecPerClus)+Drive_p->FirstDataSec;
    1fb0:	c1 14       	cp	r12, r1
    1fb2:	d1 04       	cpc	r13, r1
    1fb4:	e1 04       	cpc	r14, r1
    1fb6:	f1 04       	cpc	r15, r1
    1fb8:	d1 f4       	brne	.+52     	; 0x1fee <Open_File+0xa4>
    1fba:	ef 81       	ldd	r30, Y+7	; 0x07
    1fbc:	f8 85       	ldd	r31, Y+8	; 0x08
    1fbe:	a0 81       	ld	r26, Z
    1fc0:	b0 e0       	ldi	r27, 0x00	; 0
    1fc2:	a3 01       	movw	r20, r6
    1fc4:	92 01       	movw	r18, r4
    1fc6:	22 50       	subi	r18, 0x02	; 2
    1fc8:	31 09       	sbc	r19, r1
    1fca:	41 09       	sbc	r20, r1
    1fcc:	51 09       	sbc	r21, r1
    1fce:	0e 94 be 1d 	call	0x3b7c	; 0x3b7c <__muluhisi3>
    1fd2:	82 84       	ldd	r8, Z+10	; 0x0a
    1fd4:	93 84       	ldd	r9, Z+11	; 0x0b
    1fd6:	a4 84       	ldd	r10, Z+12	; 0x0c
    1fd8:	b5 84       	ldd	r11, Z+13	; 0x0d
    1fda:	9b 01       	movw	r18, r22
    1fdc:	ac 01       	movw	r20, r24
    1fde:	28 0d       	add	r18, r8
    1fe0:	39 1d       	adc	r19, r9
    1fe2:	4a 1d       	adc	r20, r10
    1fe4:	5b 1d       	adc	r21, r11
    1fe6:	29 83       	std	Y+1, r18	; 0x01
    1fe8:	3a 83       	std	Y+2, r19	; 0x02
    1fea:	4b 83       	std	Y+3, r20	; 0x03
    1fec:	5c 83       	std	Y+4, r21	; 0x04
      sprintf(prnt_bffr,"Cluster#: %9lu,  Sector#: %9lu,  SecOffset: %lu\n\r",Cluster_num,(Sector+SecOffset),SecOffset);
    1fee:	89 80       	ldd	r8, Y+1	; 0x01
    1ff0:	9a 80       	ldd	r9, Y+2	; 0x02
    1ff2:	ab 80       	ldd	r10, Y+3	; 0x03
    1ff4:	bc 80       	ldd	r11, Y+4	; 0x04
    1ff6:	8c 0c       	add	r8, r12
    1ff8:	9d 1c       	adc	r9, r13
    1ffa:	ae 1c       	adc	r10, r14
    1ffc:	bf 1c       	adc	r11, r15
    1ffe:	ff 92       	push	r15
    2000:	ef 92       	push	r14
    2002:	df 92       	push	r13
    2004:	cf 92       	push	r12
    2006:	bf 92       	push	r11
    2008:	af 92       	push	r10
    200a:	9f 92       	push	r9
    200c:	8f 92       	push	r8
    200e:	7f 92       	push	r7
    2010:	6f 92       	push	r6
    2012:	5f 92       	push	r5
    2014:	4f 92       	push	r4
    2016:	3f 92       	push	r3
    2018:	2f 92       	push	r2
    201a:	0f 93       	push	r16
    201c:	1f 93       	push	r17
    201e:	0e 94 14 1e 	call	0x3c28	; 0x3c28 <sprintf>
      UART_Transmit_String(&UART1,0,prnt_bffr);
    2022:	41 2f       	mov	r20, r17
    2024:	50 2f       	mov	r21, r16
    2026:	60 e0       	ldi	r22, 0x00	; 0
    2028:	88 ec       	ldi	r24, 0xC8	; 200
    202a:	90 e0       	ldi	r25, 0x00	; 0
    202c:	0e 94 4e 1d 	call	0x3a9c	; 0x3a9c <UART_Transmit_String>
	  Read_Sector((Sector+SecOffset), Drive_p->BytesPerSec, values);      
    2030:	ef 81       	ldd	r30, Y+7	; 0x07
    2032:	f8 85       	ldd	r31, Y+8	; 0x08
    2034:	44 81       	ldd	r20, Z+4	; 0x04
    2036:	55 81       	ldd	r21, Z+5	; 0x05
    2038:	2d 81       	ldd	r18, Y+5	; 0x05
    203a:	3e 81       	ldd	r19, Y+6	; 0x06
    203c:	c5 01       	movw	r24, r10
    203e:	b4 01       	movw	r22, r8
    2040:	0e 94 61 15 	call	0x2ac2	; 0x2ac2 <Read_Sector>
      print_memory(&UART1,512,values);
    2044:	4d 81       	ldd	r20, Y+5	; 0x05
    2046:	5e 81       	ldd	r21, Y+6	; 0x06
    2048:	60 e0       	ldi	r22, 0x00	; 0
    204a:	72 e0       	ldi	r23, 0x02	; 2
    204c:	88 ec       	ldi	r24, 0xC8	; 200
    204e:	90 e0       	ldi	r25, 0x00	; 0
    2050:	0e 94 22 15 	call	0x2a44	; 0x2a44 <print_memory>
      SecOffset++;
    2054:	ff ef       	ldi	r31, 0xFF	; 255
    2056:	cf 1a       	sub	r12, r31
    2058:	df 0a       	sbc	r13, r31
    205a:	ef 0a       	sbc	r14, r31
    205c:	ff 0a       	sbc	r15, r31
      if(SecOffset==Drive_p->SecPerClus)
    205e:	ef 81       	ldd	r30, Y+7	; 0x07
    2060:	f8 85       	ldd	r31, Y+8	; 0x08
    2062:	80 81       	ld	r24, Z
    2064:	90 e0       	ldi	r25, 0x00	; 0
    2066:	a0 e0       	ldi	r26, 0x00	; 0
    2068:	b0 e0       	ldi	r27, 0x00	; 0
    206a:	0f b6       	in	r0, 0x3f	; 63
    206c:	f8 94       	cli
    206e:	de bf       	out	0x3e, r29	; 62
    2070:	0f be       	out	0x3f, r0	; 63
    2072:	cd bf       	out	0x3d, r28	; 61
    2074:	c8 16       	cp	r12, r24
    2076:	d9 06       	cpc	r13, r25
    2078:	ea 06       	cpc	r14, r26
    207a:	fb 06       	cpc	r15, r27
    207c:	59 f4       	brne	.+22     	; 0x2094 <Open_File+0x14a>
      {
         Cluster_num=Find_Next_Clus(Cluster_num,values);
    207e:	4d 81       	ldd	r20, Y+5	; 0x05
    2080:	5e 81       	ldd	r21, Y+6	; 0x06
    2082:	c3 01       	movw	r24, r6
    2084:	b2 01       	movw	r22, r4
    2086:	0e 94 3e 0f 	call	0x1e7c	; 0x1e7c <Find_Next_Clus>
    208a:	2b 01       	movw	r4, r22
    208c:	3c 01       	movw	r6, r24
         SecOffset=0;
    208e:	c1 2c       	mov	r12, r1
    2090:	d1 2c       	mov	r13, r1
    2092:	76 01       	movw	r14, r12
      }
      sprintf(prnt_bffr,"Press Space to Continue or X to exit\n\r");
    2094:	87 e2       	ldi	r24, 0x27	; 39
    2096:	e0 e4       	ldi	r30, 0x40	; 64
    2098:	f1 e0       	ldi	r31, 0x01	; 1
    209a:	a1 2f       	mov	r26, r17
    209c:	b0 2f       	mov	r27, r16
    209e:	01 90       	ld	r0, Z+
    20a0:	0d 92       	st	X+, r0
    20a2:	8a 95       	dec	r24
    20a4:	e1 f7       	brne	.-8      	; 0x209e <Open_File+0x154>
	  UART_Transmit_String(&UART1,0,prnt_bffr);
    20a6:	41 2f       	mov	r20, r17
    20a8:	50 2f       	mov	r21, r16
    20aa:	60 e0       	ldi	r22, 0x00	; 0
    20ac:	88 ec       	ldi	r24, 0xC8	; 200
    20ae:	90 e0       	ldi	r25, 0x00	; 0
    20b0:	0e 94 4e 1d 	call	0x3a9c	; 0x3a9c <UART_Transmit_String>
      do
      {
        temp8=UART_Receive(&UART1);
    20b4:	88 ec       	ldi	r24, 0xC8	; 200
    20b6:	90 e0       	ldi	r25, 0x00	; 0
    20b8:	0e 94 25 1d 	call	0x3a4a	; 0x3a4a <UART_Receive>
      }while((temp8!=0x20)&&(temp8!='X')&&(temp8!='P'));
    20bc:	80 32       	cpi	r24, 0x20	; 32
    20be:	09 f4       	brne	.+2      	; 0x20c2 <Open_File+0x178>
    20c0:	77 cf       	rjmp	.-274    	; 0x1fb0 <Open_File+0x66>
    20c2:	88 35       	cpi	r24, 0x58	; 88
    20c4:	31 f0       	breq	.+12     	; 0x20d2 <Open_File+0x188>
    20c6:	80 35       	cpi	r24, 0x50	; 80
    20c8:	a9 f7       	brne	.-22     	; 0x20b4 <Open_File+0x16a>
      if(temp8=='P')
      {
         Play_MP3_file(Cluster_num);
    20ca:	c3 01       	movw	r24, r6
    20cc:	b2 01       	movw	r22, r4
    20ce:	0e 94 e3 13 	call	0x27c6	; 0x27c6 <Play_MP3_file>
		 //Play_Song(Cluster_num);
      }
   }while(temp8==0x20);
   UART_Transmit(&UART1,CR);
    20d2:	6d e0       	ldi	r22, 0x0D	; 13
    20d4:	88 ec       	ldi	r24, 0xC8	; 200
    20d6:	90 e0       	ldi	r25, 0x00	; 0
    20d8:	0e 94 1e 1d 	call	0x3a3c	; 0x3a3c <UART_Transmit>
   UART_Transmit(&UART1,LF);
    20dc:	6a e0       	ldi	r22, 0x0A	; 10
    20de:	88 ec       	ldi	r24, 0xC8	; 200
    20e0:	90 e0       	ldi	r25, 0x00	; 0
    20e2:	0e 94 1e 1d 	call	0x3a3c	; 0x3a3c <UART_Transmit>
   UART_Transmit(&UART1,LF);
    20e6:	6a e0       	ldi	r22, 0x0A	; 10
    20e8:	88 ec       	ldi	r24, 0xC8	; 200
    20ea:	90 e0       	ldi	r25, 0x00	; 0
    20ec:	0e 94 1e 1d 	call	0x3a3c	; 0x3a3c <UART_Transmit>
return 0;
}
    20f0:	80 e0       	ldi	r24, 0x00	; 0
    20f2:	28 96       	adiw	r28, 0x08	; 8
    20f4:	0f b6       	in	r0, 0x3f	; 63
    20f6:	f8 94       	cli
    20f8:	de bf       	out	0x3e, r29	; 62
    20fa:	0f be       	out	0x3f, r0	; 63
    20fc:	cd bf       	out	0x3d, r28	; 61
    20fe:	df 91       	pop	r29
    2100:	cf 91       	pop	r28
    2102:	1f 91       	pop	r17
    2104:	0f 91       	pop	r16
    2106:	ff 90       	pop	r15
    2108:	ef 90       	pop	r14
    210a:	df 90       	pop	r13
    210c:	cf 90       	pop	r12
    210e:	bf 90       	pop	r11
    2110:	af 90       	pop	r10
    2112:	9f 90       	pop	r9
    2114:	8f 90       	pop	r8
    2116:	7f 90       	pop	r7
    2118:	6f 90       	pop	r6
    211a:	5f 90       	pop	r5
    211c:	4f 90       	pop	r4
    211e:	3f 90       	pop	r3
    2120:	2f 90       	pop	r2
    2122:	08 95       	ret

00002124 <TWI_Master_Init>:
CAUTION: 
          
************************************************************************/

uint8_t TWI_Master_Init(uint8_t volatile *TWI_addr, uint32_t I2C_FREQ)
{
    2124:	cf 93       	push	r28
    2126:	df 93       	push	r29
    2128:	ec 01       	movw	r28, r24
    212a:	9a 01       	movw	r18, r20
    212c:	ab 01       	movw	r20, r22
	uint32_t temp32;
	uint8_t Prescale=0, return_val=0;
	
	temp32 = ((F_CPU/F_DIV)/I2C_FREQ)-16;
    212e:	60 e0       	ldi	r22, 0x00	; 0
    2130:	74 e2       	ldi	r23, 0x24	; 36
    2132:	84 ef       	ldi	r24, 0xF4	; 244
    2134:	90 e0       	ldi	r25, 0x00	; 0
    2136:	0e 94 9c 1d 	call	0x3b38	; 0x3b38 <__udivmodsi4>
    213a:	da 01       	movw	r26, r20
    213c:	c9 01       	movw	r24, r18
    213e:	40 97       	sbiw	r24, 0x10	; 16
    2140:	a1 09       	sbc	r26, r1
    2142:	b1 09       	sbc	r27, r1
	while(temp32>256)
    2144:	81 30       	cpi	r24, 0x01	; 1
    2146:	21 e0       	ldi	r18, 0x01	; 1
    2148:	92 07       	cpc	r25, r18
    214a:	a1 05       	cpc	r26, r1
    214c:	b1 05       	cpc	r27, r1
    214e:	98 f0       	brcs	.+38     	; 0x2176 <TWI_Master_Init+0x52>
    2150:	20 e0       	ldi	r18, 0x00	; 0
	{
		temp32=temp32/4;
    2152:	b6 95       	lsr	r27
    2154:	a7 95       	ror	r26
    2156:	97 95       	ror	r25
    2158:	87 95       	ror	r24
    215a:	b6 95       	lsr	r27
    215c:	a7 95       	ror	r26
    215e:	97 95       	ror	r25
    2160:	87 95       	ror	r24
		Prescale++;
    2162:	2f 5f       	subi	r18, 0xFF	; 255
{
	uint32_t temp32;
	uint8_t Prescale=0, return_val=0;
	
	temp32 = ((F_CPU/F_DIV)/I2C_FREQ)-16;
	while(temp32>256)
    2164:	81 30       	cpi	r24, 0x01	; 1
    2166:	31 e0       	ldi	r19, 0x01	; 1
    2168:	93 07       	cpc	r25, r19
    216a:	a1 05       	cpc	r26, r1
    216c:	b1 05       	cpc	r27, r1
    216e:	88 f7       	brcc	.-30     	; 0x2152 <TWI_Master_Init+0x2e>
	{
		temp32=temp32/4;
		Prescale++;
	}
	if(Prescale>3)
    2170:	24 30       	cpi	r18, 0x04	; 4
    2172:	30 f4       	brcc	.+12     	; 0x2180 <TWI_Master_Init+0x5c>
    2174:	01 c0       	rjmp	.+2      	; 0x2178 <TWI_Master_Init+0x54>
************************************************************************/

uint8_t TWI_Master_Init(uint8_t volatile *TWI_addr, uint32_t I2C_FREQ)
{
	uint32_t temp32;
	uint8_t Prescale=0, return_val=0;
    2176:	20 e0       	ldi	r18, 0x00	; 0
	{
		return_val=0x8A;
	}
	else
	{
		*(TWI_addr+TWSR)=Prescale;
    2178:	29 83       	std	Y+1, r18	; 0x01
		*(TWI_addr+TWBR)=(uint8_t)temp32;
    217a:	88 83       	st	Y, r24
************************************************************************/

uint8_t TWI_Master_Init(uint8_t volatile *TWI_addr, uint32_t I2C_FREQ)
{
	uint32_t temp32;
	uint8_t Prescale=0, return_val=0;
    217c:	80 e0       	ldi	r24, 0x00	; 0
    217e:	01 c0       	rjmp	.+2      	; 0x2182 <TWI_Master_Init+0x5e>
		temp32=temp32/4;
		Prescale++;
	}
	if(Prescale>3)
	{
		return_val=0x8A;
    2180:	8a e8       	ldi	r24, 0x8A	; 138
		*(TWI_addr+TWSR)=Prescale;
		*(TWI_addr+TWBR)=(uint8_t)temp32;
	}
	return return_val;
	
}
    2182:	df 91       	pop	r29
    2184:	cf 91       	pop	r28
    2186:	08 95       	ret

00002188 <TWI_Master_Transmit>:
CAUTION: 
          
************************************************************************/

uint8_t TWI_Master_Transmit(uint8_t volatile *TWI_addr, uint8_t device_addr, uint32_t internal_addr, uint8_t int_addr_bytes, uint8_t num_bytes, uint8_t *send_array)
{
    2188:	8f 92       	push	r8
    218a:	9f 92       	push	r9
    218c:	af 92       	push	r10
    218e:	bf 92       	push	r11
    2190:	cf 92       	push	r12
    2192:	df 92       	push	r13
    2194:	ef 92       	push	r14
    2196:	0f 93       	push	r16
    2198:	1f 93       	push	r17
    219a:	cf 93       	push	r28
    219c:	df 93       	push	r29
    219e:	1f 92       	push	r1
    21a0:	cd b7       	in	r28, 0x3d	; 61
    21a2:	de b7       	in	r29, 0x3e	; 62
    21a4:	fc 01       	movw	r30, r24
  volatile uint8_t temp8; 
  return_val=no_errors;
  send_val=device_addr<<1; // lsb is 0 for W
  index=0;
  // Send START 
  *(TWI_addr+TWCR) = 0xA4;   // TWIINT=1 to clear flag, TWSTA=1 for Start, TWEN=1
    21a6:	84 ea       	ldi	r24, 0xA4	; 164
    21a8:	84 83       	std	Z+4, r24	; 0x04
  do 
  {
	 status=*(TWI_addr+TWCR);
    21aa:	84 81       	ldd	r24, Z+4	; 0x04
  } while ((status&0x80)==0);
    21ac:	88 23       	and	r24, r24
    21ae:	ec f7       	brge	.-6      	; 0x21aa <TWI_Master_Transmit+0x22>
  temp8=(*(TWI_addr+TWSR)&0xF8);
    21b0:	81 81       	ldd	r24, Z+1	; 0x01
    21b2:	88 7f       	andi	r24, 0xF8	; 248
    21b4:	89 83       	std	Y+1, r24	; 0x01
  if(temp8==0x08)   // Start sent
    21b6:	89 81       	ldd	r24, Y+1	; 0x01
    21b8:	88 30       	cpi	r24, 0x08	; 8
    21ba:	39 f4       	brne	.+14     	; 0x21ca <TWI_Master_Transmit+0x42>
uint8_t TWI_Master_Transmit(uint8_t volatile *TWI_addr, uint8_t device_addr, uint32_t internal_addr, uint8_t int_addr_bytes, uint8_t num_bytes, uint8_t *send_array)
{
  uint8_t send_val, return_val, index, status;
  volatile uint8_t temp8; 
  return_val=no_errors;
  send_val=device_addr<<1; // lsb is 0 for W
    21bc:	66 0f       	add	r22, r22
	 status=*(TWI_addr+TWCR);
  } while ((status&0x80)==0);
  temp8=(*(TWI_addr+TWSR)&0xF8);
  if(temp8==0x08)   // Start sent
  {
	  *(TWI_addr+TWDR)=send_val;
    21be:	63 83       	std	Z+3, r22	; 0x03
	  *(TWI_addr+TWCR) = 0x84;   // TWIINT=1 to clear flag, TWEN=1  
    21c0:	84 e8       	ldi	r24, 0x84	; 132
    21c2:	84 83       	std	Z+4, r24	; 0x04
  else
  {
	  return_val=bus_busy_error;
  }
  /**** Send Internal Address *****/
  if((int_addr_bytes!=0)&&(return_val==no_errors))
    21c4:	01 11       	cpse	r16, r1
    21c6:	03 c0       	rjmp	.+6      	; 0x21ce <TWI_Master_Transmit+0x46>
    21c8:	4d c0       	rjmp	.+154    	; 0x2264 <TWI_Master_Transmit+0xdc>
	  *(TWI_addr+TWDR)=send_val;
	  *(TWI_addr+TWCR) = 0x84;   // TWIINT=1 to clear flag, TWEN=1  
  }
  else
  {
	  return_val=bus_busy_error;
    21ca:	81 e8       	ldi	r24, 0x81	; 129
    21cc:	ca c0       	rjmp	.+404    	; 0x2362 <TWI_Master_Transmit+0x1da>
  }
  /**** Send Internal Address *****/
  if((int_addr_bytes!=0)&&(return_val==no_errors))
  {
	  index=4-int_addr_bytes;
    21ce:	94 e0       	ldi	r25, 0x04	; 4
    21d0:	90 1b       	sub	r25, r16
	  while((index<4)&&(return_val==no_errors))
    21d2:	94 30       	cpi	r25, 0x04	; 4
    21d4:	08 f0       	brcs	.+2      	; 0x21d8 <TWI_Master_Transmit+0x50>
    21d6:	46 c0       	rjmp	.+140    	; 0x2264 <TWI_Master_Transmit+0xdc>
	  {
		   send_val=(uint8_t)(internal_addr>>(8*(3-index)));
    21d8:	63 e0       	ldi	r22, 0x03	; 3
    21da:	70 e0       	ldi	r23, 0x00	; 0
			   
		   }
		   else if(temp8==0x28)  // Data sent, ACK received
		   {
			   *(TWI_addr+TWDR)=send_val;
			   *(TWI_addr+TWCR) = 0x84;   // TWIINT=1 to clear flag, TWEN=1
    21dc:	a4 e8       	ldi	r26, 0x84	; 132
  if((int_addr_bytes!=0)&&(return_val==no_errors))
  {
	  index=4-int_addr_bytes;
	  while((index<4)&&(return_val==no_errors))
	  {
		   send_val=(uint8_t)(internal_addr>>(8*(3-index)));
    21de:	8b 01       	movw	r16, r22
    21e0:	09 1b       	sub	r16, r25
    21e2:	11 09       	sbc	r17, r1
    21e4:	00 0f       	add	r16, r16
    21e6:	11 1f       	adc	r17, r17
    21e8:	00 0f       	add	r16, r16
    21ea:	11 1f       	adc	r17, r17
    21ec:	00 0f       	add	r16, r16
    21ee:	11 1f       	adc	r17, r17
    21f0:	49 01       	movw	r8, r18
    21f2:	5a 01       	movw	r10, r20
    21f4:	04 c0       	rjmp	.+8      	; 0x21fe <TWI_Master_Transmit+0x76>
    21f6:	b6 94       	lsr	r11
    21f8:	a7 94       	ror	r10
    21fa:	97 94       	ror	r9
    21fc:	87 94       	ror	r8
    21fe:	0a 95       	dec	r16
    2200:	d2 f7       	brpl	.-12     	; 0x21f6 <TWI_Master_Transmit+0x6e>
		   index++;
    2202:	9f 5f       	subi	r25, 0xFF	; 255
		   do
		   {
			   status=*(TWI_addr+TWCR);
    2204:	84 81       	ldd	r24, Z+4	; 0x04
		   } while ((status&0x80)==0);
    2206:	88 23       	and	r24, r24
    2208:	ec f7       	brge	.-6      	; 0x2204 <TWI_Master_Transmit+0x7c>
		   temp8=(*(TWI_addr+TWSR)&0xF8);
    220a:	81 81       	ldd	r24, Z+1	; 0x01
    220c:	88 7f       	andi	r24, 0xF8	; 248
    220e:	89 83       	std	Y+1, r24	; 0x01
		   if(temp8==0x18)   // SLA+W sent, ACK received
    2210:	89 81       	ldd	r24, Y+1	; 0x01
    2212:	88 31       	cpi	r24, 0x18	; 24
    2214:	19 f4       	brne	.+6      	; 0x221c <TWI_Master_Transmit+0x94>
		   {
			   *(TWI_addr+TWDR)=send_val;
    2216:	83 82       	std	Z+3, r8	; 0x03
			   *(TWI_addr+TWCR) = 0x84;   // TWIINT=1 to clear flag, TWEN=1
    2218:	a4 83       	std	Z+4, r26	; 0x04
    221a:	91 c0       	rjmp	.+290    	; 0x233e <TWI_Master_Transmit+0x1b6>
			   
		   }
		   else if(temp8==0x28)  // Data sent, ACK received
    221c:	89 81       	ldd	r24, Y+1	; 0x01
    221e:	88 32       	cpi	r24, 0x28	; 40
    2220:	19 f4       	brne	.+6      	; 0x2228 <TWI_Master_Transmit+0xa0>
		   {
			   *(TWI_addr+TWDR)=send_val;
    2222:	83 82       	std	Z+3, r8	; 0x03
			   *(TWI_addr+TWCR) = 0x84;   // TWIINT=1 to clear flag, TWEN=1
    2224:	a4 83       	std	Z+4, r26	; 0x04
    2226:	8b c0       	rjmp	.+278    	; 0x233e <TWI_Master_Transmit+0x1b6>
			   
		   }
		   else if(temp8==0x20)  // SLA+W sent, NACK received
    2228:	89 81       	ldd	r24, Y+1	; 0x01
    222a:	80 32       	cpi	r24, 0x20	; 32
    222c:	39 f4       	brne	.+14     	; 0x223c <TWI_Master_Transmit+0xb4>
		   {
			   *(TWI_addr+TWCR) = 0x84;   // TWIINT=1 to clear flag, TWSTO=1 for Stop, TWEN=1
    222e:	84 e8       	ldi	r24, 0x84	; 132
    2230:	84 83       	std	Z+4, r24	; 0x04
			   do
			   {
				   status=*(TWI_addr+TWCR);
    2232:	84 81       	ldd	r24, Z+4	; 0x04
			   } while ((status&(1<<TWSTO))!=0);
    2234:	84 fd       	sbrc	r24, 4
    2236:	fd cf       	rjmp	.-6      	; 0x2232 <TWI_Master_Transmit+0xaa>
			   return_val=NACK_error;
    2238:	82 e8       	ldi	r24, 0x82	; 130
    223a:	86 c0       	rjmp	.+268    	; 0x2348 <TWI_Master_Transmit+0x1c0>
		   }
		   else if(temp8==0x30)  // Data sent, NACK received
    223c:	89 81       	ldd	r24, Y+1	; 0x01
    223e:	80 33       	cpi	r24, 0x30	; 48
    2240:	39 f4       	brne	.+14     	; 0x2250 <TWI_Master_Transmit+0xc8>
		   {
			   *(TWI_addr+TWCR) = 0x84;   // TWIINT=1 to clear flag, TWSTO=1 for Stop, TWEN=1
    2242:	84 e8       	ldi	r24, 0x84	; 132
    2244:	84 83       	std	Z+4, r24	; 0x04
			   do
			   {
				   status=*(TWI_addr+TWCR);
    2246:	84 81       	ldd	r24, Z+4	; 0x04
			   } while ((status&(1<<TWSTO))!=0); // Wait for the Stop flag to be cleared
    2248:	84 fd       	sbrc	r24, 4
    224a:	fd cf       	rjmp	.-6      	; 0x2246 <TWI_Master_Transmit+0xbe>
			   return_val=NACK_error;
    224c:	82 e8       	ldi	r24, 0x82	; 130
    224e:	7c c0       	rjmp	.+248    	; 0x2348 <TWI_Master_Transmit+0x1c0>
		   }
		   else if(temp8==0x38)  // Arbitration lost
    2250:	89 81       	ldd	r24, Y+1	; 0x01
    2252:	88 33       	cpi	r24, 0x38	; 56
    2254:	09 f0       	breq	.+2      	; 0x2258 <TWI_Master_Transmit+0xd0>
    2256:	73 c0       	rjmp	.+230    	; 0x233e <TWI_Master_Transmit+0x1b6>
		   {
			   *(TWI_addr+TWCR) = 0x84;   // TWIINT=1 to clear flag, TWEN=1
    2258:	84 e8       	ldi	r24, 0x84	; 132
    225a:	84 83       	std	Z+4, r24	; 0x04
			   return_val=bus_busy_error;
    225c:	81 e8       	ldi	r24, 0x81	; 129
    225e:	74 c0       	rjmp	.+232    	; 0x2348 <TWI_Master_Transmit+0x1c0>
		   }
	  }
  }
  index=0;	  
  /**** Send Data Bytes ******/
  if(return_val==no_errors)
    2260:	81 11       	cpse	r24, r1
    2262:	7f c0       	rjmp	.+254    	; 0x2362 <TWI_Master_Transmit+0x1da>
  {
	   while((num_bytes!=0)&&(return_val==no_errors))
    2264:	ee 20       	and	r14, r14
    2266:	a9 f1       	breq	.+106    	; 0x22d2 <TWI_Master_Transmit+0x14a>
    2268:	ea 94       	dec	r14
    226a:	90 e0       	ldi	r25, 0x00	; 0
			   
		   }
		   else if(temp8==0x28)  // Data sent, ACK received
		   {
			   *(TWI_addr+TWDR)=send_val;
			   *(TWI_addr+TWCR) = 0x84;   // TWIINT=1 to clear flag, TWEN=1
    226c:	34 e8       	ldi	r19, 0x84	; 132
  /**** Send Data Bytes ******/
  if(return_val==no_errors)
  {
	   while((num_bytes!=0)&&(return_val==no_errors))
	   {
		   send_val=send_array[index];
    226e:	d6 01       	movw	r26, r12
    2270:	a9 0f       	add	r26, r25
    2272:	b1 1d       	adc	r27, r1
    2274:	2c 91       	ld	r18, X
		   index++;
		   num_bytes--;
		   do
		   {
			   status=*(TWI_addr+TWCR);
    2276:	84 81       	ldd	r24, Z+4	; 0x04
		   } while ((status&0x80)==0);    // Wait for TWINT to be set
    2278:	88 23       	and	r24, r24
    227a:	ec f7       	brge	.-6      	; 0x2276 <TWI_Master_Transmit+0xee>
		   temp8=(*(TWI_addr+TWSR)&0xF8);
    227c:	81 81       	ldd	r24, Z+1	; 0x01
    227e:	88 7f       	andi	r24, 0xF8	; 248
    2280:	89 83       	std	Y+1, r24	; 0x01
		   if(temp8==0x18)   // SLA+W sent, ACK received
    2282:	89 81       	ldd	r24, Y+1	; 0x01
    2284:	88 31       	cpi	r24, 0x18	; 24
    2286:	19 f4       	brne	.+6      	; 0x228e <TWI_Master_Transmit+0x106>
		   {
			   *(TWI_addr+TWDR)=send_val;
    2288:	23 83       	std	Z+3, r18	; 0x03
			   *(TWI_addr+TWCR) = 0x84;   // TWIINT=1 to clear flag, TWEN=1
    228a:	34 83       	std	Z+4, r19	; 0x04
    228c:	63 c0       	rjmp	.+198    	; 0x2354 <TWI_Master_Transmit+0x1cc>
			   
		   }
		   else if(temp8==0x28)  // Data sent, ACK received
    228e:	89 81       	ldd	r24, Y+1	; 0x01
    2290:	88 32       	cpi	r24, 0x28	; 40
    2292:	19 f4       	brne	.+6      	; 0x229a <TWI_Master_Transmit+0x112>
		   {
			   *(TWI_addr+TWDR)=send_val;
    2294:	23 83       	std	Z+3, r18	; 0x03
			   *(TWI_addr+TWCR) = 0x84;   // TWIINT=1 to clear flag, TWEN=1
    2296:	34 83       	std	Z+4, r19	; 0x04
    2298:	5d c0       	rjmp	.+186    	; 0x2354 <TWI_Master_Transmit+0x1cc>
			   
		   }
		   else if(temp8==0x20)  // SLA+W sent, NACK received
    229a:	89 81       	ldd	r24, Y+1	; 0x01
    229c:	80 32       	cpi	r24, 0x20	; 32
    229e:	39 f4       	brne	.+14     	; 0x22ae <TWI_Master_Transmit+0x126>
		   {
			   *(TWI_addr+TWCR) = 0x94;   // TWIINT=1 to clear flag, TWSTO=1 for Stop, TWEN=1
    22a0:	84 e9       	ldi	r24, 0x94	; 148
    22a2:	84 83       	std	Z+4, r24	; 0x04
			   do
			   {
				   status=*(TWI_addr+TWCR);
    22a4:	84 81       	ldd	r24, Z+4	; 0x04
			   } while ((status&(1<<TWSTO))!=0); // Wait for the Stop flag to be cleared
    22a6:	84 fd       	sbrc	r24, 4
    22a8:	fd cf       	rjmp	.-6      	; 0x22a4 <TWI_Master_Transmit+0x11c>
			   return_val=NACK_error;
    22aa:	82 e8       	ldi	r24, 0x82	; 130
    22ac:	57 c0       	rjmp	.+174    	; 0x235c <TWI_Master_Transmit+0x1d4>
		   }
		   else if(temp8==0x30)  // Data sent, NACK received
    22ae:	89 81       	ldd	r24, Y+1	; 0x01
    22b0:	80 33       	cpi	r24, 0x30	; 48
    22b2:	39 f4       	brne	.+14     	; 0x22c2 <TWI_Master_Transmit+0x13a>
		   {
			   *(TWI_addr+TWCR) = 0x94;   // TWIINT=1 to clear flag, TWSTO=1 for Stop, TWEN=1
    22b4:	84 e9       	ldi	r24, 0x94	; 148
    22b6:	84 83       	std	Z+4, r24	; 0x04
			   do
			   {
				   status=*(TWI_addr+TWCR);
    22b8:	84 81       	ldd	r24, Z+4	; 0x04
			   } while ((status&(1<<TWSTO))!=0); // Wait for the Stop flag to be cleared
    22ba:	84 fd       	sbrc	r24, 4
    22bc:	fd cf       	rjmp	.-6      	; 0x22b8 <TWI_Master_Transmit+0x130>
			   return_val=NACK_error;
    22be:	82 e8       	ldi	r24, 0x82	; 130
    22c0:	4d c0       	rjmp	.+154    	; 0x235c <TWI_Master_Transmit+0x1d4>
		   }
		   else if(temp8==0x38)  // Arbitration lost
    22c2:	89 81       	ldd	r24, Y+1	; 0x01
    22c4:	88 33       	cpi	r24, 0x38	; 56
    22c6:	09 f0       	breq	.+2      	; 0x22ca <TWI_Master_Transmit+0x142>
    22c8:	45 c0       	rjmp	.+138    	; 0x2354 <TWI_Master_Transmit+0x1cc>
		   {
			   *(TWI_addr+TWCR) = 0x84;   // TWIINT=1 to clear flag, TWEN=1
    22ca:	84 e8       	ldi	r24, 0x84	; 132
    22cc:	84 83       	std	Z+4, r24	; 0x04
			   return_val=bus_busy_error;
    22ce:	81 e8       	ldi	r24, 0x81	; 129
    22d0:	45 c0       	rjmp	.+138    	; 0x235c <TWI_Master_Transmit+0x1d4>
  }
  index=0;	  
  /**** Send Data Bytes ******/
  if(return_val==no_errors)
  {
	   while((num_bytes!=0)&&(return_val==no_errors))
    22d2:	80 e0       	ldi	r24, 0x00	; 0
		   {
			   *(TWI_addr+TWCR) = 0x84;   // TWIINT=1 to clear flag, TWEN=1
			   return_val=bus_busy_error;
		   }
	   }
	   if(return_val==no_errors)
    22d4:	81 11       	cpse	r24, r1
    22d6:	45 c0       	rjmp	.+138    	; 0x2362 <TWI_Master_Transmit+0x1da>
	   {
		   do
		   {
			   status=*(TWI_addr+TWCR);
    22d8:	94 81       	ldd	r25, Z+4	; 0x04
		   } while ((status&0x80)==0);    // Wait for TWINT to be set
    22da:	99 23       	and	r25, r25
    22dc:	ec f7       	brge	.-6      	; 0x22d8 <TWI_Master_Transmit+0x150>
		   temp8=(*(TWI_addr+TWSR)&0xF8);
    22de:	91 81       	ldd	r25, Z+1	; 0x01
    22e0:	98 7f       	andi	r25, 0xF8	; 248
    22e2:	99 83       	std	Y+1, r25	; 0x01
		   if(temp8==0x18)   // SLA+W sent, ACK received
    22e4:	99 81       	ldd	r25, Y+1	; 0x01
    22e6:	98 31       	cpi	r25, 0x18	; 24
    22e8:	31 f4       	brne	.+12     	; 0x22f6 <TWI_Master_Transmit+0x16e>
		   {
			   *(TWI_addr+TWCR) = 0x94;   // TWIINT=1 to clear flag, TWSTO=1 for Stop, TWEN=1
    22ea:	94 e9       	ldi	r25, 0x94	; 148
    22ec:	94 83       	std	Z+4, r25	; 0x04
			   do
			   {
				   status=*(TWI_addr+TWCR);
    22ee:	94 81       	ldd	r25, Z+4	; 0x04
			   } while ((status&(1<<TWSTO))!=0); // Wait for the Stop flag to be cleared // Wait for the Stop flag to be cleared
    22f0:	94 fd       	sbrc	r25, 4
    22f2:	fd cf       	rjmp	.-6      	; 0x22ee <TWI_Master_Transmit+0x166>
    22f4:	36 c0       	rjmp	.+108    	; 0x2362 <TWI_Master_Transmit+0x1da>
		   }
		   else if(temp8==0x28)  // Data sent, ACK received
    22f6:	99 81       	ldd	r25, Y+1	; 0x01
    22f8:	98 32       	cpi	r25, 0x28	; 40
    22fa:	31 f4       	brne	.+12     	; 0x2308 <TWI_Master_Transmit+0x180>
		   {
			   *(TWI_addr+TWCR) = 0x94;   // TWIINT=1 to clear flag, TWSTO=1 for Stop, TWEN=1
    22fc:	94 e9       	ldi	r25, 0x94	; 148
    22fe:	94 83       	std	Z+4, r25	; 0x04
			   do
			   {
				   status=*(TWI_addr+TWCR);
    2300:	94 81       	ldd	r25, Z+4	; 0x04
			   } while ((status&(1<<TWSTO))!=0); // Wait for the Stop flag to be cleared // Wait for the Stop flag to be cleared
    2302:	94 fd       	sbrc	r25, 4
    2304:	fd cf       	rjmp	.-6      	; 0x2300 <TWI_Master_Transmit+0x178>
    2306:	2d c0       	rjmp	.+90     	; 0x2362 <TWI_Master_Transmit+0x1da>
		   }
		   else if(temp8==0x20)  // SLA+W sent, NACK received
    2308:	99 81       	ldd	r25, Y+1	; 0x01
    230a:	90 32       	cpi	r25, 0x20	; 32
    230c:	39 f4       	brne	.+14     	; 0x231c <TWI_Master_Transmit+0x194>
		   {
			   *(TWI_addr+TWCR) = 0x94;   // TWIINT=1 to clear flag, TWSTO=1 for Stop, TWEN=1
    230e:	84 e9       	ldi	r24, 0x94	; 148
    2310:	84 83       	std	Z+4, r24	; 0x04
			   do
			   {
				   status=*(TWI_addr+TWCR);
    2312:	84 81       	ldd	r24, Z+4	; 0x04
			   } while ((status&(1<<TWSTO))!=0); // Wait for the Stop flag to be cleared // Wait for the Stop flag to be cleared
    2314:	84 fd       	sbrc	r24, 4
    2316:	fd cf       	rjmp	.-6      	; 0x2312 <TWI_Master_Transmit+0x18a>
			   return_val=NACK_error;
    2318:	82 e8       	ldi	r24, 0x82	; 130
    231a:	23 c0       	rjmp	.+70     	; 0x2362 <TWI_Master_Transmit+0x1da>
		   }
		   else if(temp8==0x30)  // Data sent, NACK received
    231c:	99 81       	ldd	r25, Y+1	; 0x01
    231e:	90 33       	cpi	r25, 0x30	; 48
    2320:	39 f4       	brne	.+14     	; 0x2330 <TWI_Master_Transmit+0x1a8>
		   {
			   *(TWI_addr+TWCR) = 0x94;   // TWIINT=1 to clear flag, TWSTO=1 for Stop, TWEN=1
    2322:	84 e9       	ldi	r24, 0x94	; 148
    2324:	84 83       	std	Z+4, r24	; 0x04
			   do
			   {
				   status=*(TWI_addr+TWCR);
    2326:	84 81       	ldd	r24, Z+4	; 0x04
			   } while ((status&(1<<TWSTO))!=0); // Wait for the Stop flag to be cleared // Wait for the Stop flag to be cleared
    2328:	84 fd       	sbrc	r24, 4
    232a:	fd cf       	rjmp	.-6      	; 0x2326 <TWI_Master_Transmit+0x19e>
			   return_val=NACK_error;
    232c:	82 e8       	ldi	r24, 0x82	; 130
    232e:	19 c0       	rjmp	.+50     	; 0x2362 <TWI_Master_Transmit+0x1da>
		   }
		   else if(temp8==0x38)  // Arbitration lost
    2330:	99 81       	ldd	r25, Y+1	; 0x01
    2332:	98 33       	cpi	r25, 0x38	; 56
    2334:	b1 f4       	brne	.+44     	; 0x2362 <TWI_Master_Transmit+0x1da>
		   {
			   *(TWI_addr+TWCR) = 0x84;   // TWIINT=1 to clear flag, TWEN=1
    2336:	84 e8       	ldi	r24, 0x84	; 132
    2338:	84 83       	std	Z+4, r24	; 0x04
			   return_val=bus_busy_error;
    233a:	81 e8       	ldi	r24, 0x81	; 129
    233c:	12 c0       	rjmp	.+36     	; 0x2362 <TWI_Master_Transmit+0x1da>
  }
  /**** Send Internal Address *****/
  if((int_addr_bytes!=0)&&(return_val==no_errors))
  {
	  index=4-int_addr_bytes;
	  while((index<4)&&(return_val==no_errors))
    233e:	94 30       	cpi	r25, 0x04	; 4
    2340:	09 f0       	breq	.+2      	; 0x2344 <TWI_Master_Transmit+0x1bc>
    2342:	4d cf       	rjmp	.-358    	; 0x21de <TWI_Master_Transmit+0x56>
    2344:	80 e0       	ldi	r24, 0x00	; 0
    2346:	8c cf       	rjmp	.-232    	; 0x2260 <TWI_Master_Transmit+0xd8>
    2348:	94 30       	cpi	r25, 0x04	; 4
    234a:	09 f4       	brne	.+2      	; 0x234e <TWI_Master_Transmit+0x1c6>
    234c:	89 cf       	rjmp	.-238    	; 0x2260 <TWI_Master_Transmit+0xd8>
    234e:	09 c0       	rjmp	.+18     	; 0x2362 <TWI_Master_Transmit+0x1da>
    2350:	9f 5f       	subi	r25, 0xFF	; 255
    2352:	8d cf       	rjmp	.-230    	; 0x226e <TWI_Master_Transmit+0xe6>
  }
  index=0;	  
  /**** Send Data Bytes ******/
  if(return_val==no_errors)
  {
	   while((num_bytes!=0)&&(return_val==no_errors))
    2354:	9e 11       	cpse	r25, r14
    2356:	fc cf       	rjmp	.-8      	; 0x2350 <TWI_Master_Transmit+0x1c8>
    2358:	80 e0       	ldi	r24, 0x00	; 0
    235a:	bc cf       	rjmp	.-136    	; 0x22d4 <TWI_Master_Transmit+0x14c>
    235c:	9e 15       	cp	r25, r14
    235e:	09 f4       	brne	.+2      	; 0x2362 <TWI_Master_Transmit+0x1da>
    2360:	b9 cf       	rjmp	.-142    	; 0x22d4 <TWI_Master_Transmit+0x14c>
		   }
	   }
  }
	   
  return return_val;
}
    2362:	0f 90       	pop	r0
    2364:	df 91       	pop	r29
    2366:	cf 91       	pop	r28
    2368:	1f 91       	pop	r17
    236a:	0f 91       	pop	r16
    236c:	ef 90       	pop	r14
    236e:	df 90       	pop	r13
    2370:	cf 90       	pop	r12
    2372:	bf 90       	pop	r11
    2374:	af 90       	pop	r10
    2376:	9f 90       	pop	r9
    2378:	8f 90       	pop	r8
    237a:	08 95       	ret

0000237c <TWI_Master_Receive>:
          
************************************************************************/


uint8_t TWI_Master_Receive(uint8_t volatile *TWI_addr, uint8_t device_addr, uint32_t internal_addr, uint8_t int_addr_bytes, uint8_t num_bytes, uint8_t * rec_array)
{
    237c:	8f 92       	push	r8
    237e:	9f 92       	push	r9
    2380:	af 92       	push	r10
    2382:	bf 92       	push	r11
    2384:	cf 92       	push	r12
    2386:	df 92       	push	r13
    2388:	ef 92       	push	r14
    238a:	ff 92       	push	r15
    238c:	0f 93       	push	r16
    238e:	1f 93       	push	r17
    2390:	cf 93       	push	r28
    2392:	df 93       	push	r29
    2394:	1f 92       	push	r1
    2396:	cd b7       	in	r28, 0x3d	; 61
    2398:	de b7       	in	r29, 0x3e	; 62
    239a:	5c 01       	movw	r10, r24
    239c:	f6 2e       	mov	r15, r22
    239e:	1e 2d       	mov	r17, r14
    23a0:	46 01       	movw	r8, r12
  uint8_t temp8, send_val, return_val, index, status;
  
  return_val=no_errors;
  if(int_addr_bytes!=0)
    23a2:	00 23       	and	r16, r16
    23a4:	41 f0       	breq	.+16     	; 0x23b6 <TWI_Master_Receive+0x3a>
  {
	  return_val=TWI_Master_Transmit(TWI_addr,device_addr,internal_addr, int_addr_bytes,0,&send_val);
    23a6:	ce 01       	movw	r24, r28
    23a8:	01 96       	adiw	r24, 0x01	; 1
    23aa:	6c 01       	movw	r12, r24
    23ac:	e1 2c       	mov	r14, r1
    23ae:	c5 01       	movw	r24, r10
    23b0:	0e 94 c4 10 	call	0x2188	; 0x2188 <TWI_Master_Transmit>
    23b4:	01 c0       	rjmp	.+2      	; 0x23b8 <TWI_Master_Receive+0x3c>

uint8_t TWI_Master_Receive(uint8_t volatile *TWI_addr, uint8_t device_addr, uint32_t internal_addr, uint8_t int_addr_bytes, uint8_t num_bytes, uint8_t * rec_array)
{
  uint8_t temp8, send_val, return_val, index, status;
  
  return_val=no_errors;
    23b6:	80 e0       	ldi	r24, 0x00	; 0
  if(int_addr_bytes!=0)
  {
	  return_val=TWI_Master_Transmit(TWI_addr,device_addr,internal_addr, int_addr_bytes,0,&send_val);
  }
  send_val=((device_addr<<1)|0x01); // lsb is 1 for R
    23b8:	6f 2d       	mov	r22, r15
    23ba:	66 0f       	add	r22, r22
    23bc:	61 60       	ori	r22, 0x01	; 1
    23be:	69 83       	std	Y+1, r22	; 0x01
  index=0;
  // Send START
  *(TWI_addr+TWCR) = 0xA4;   // TWIINT=1 to clear flag, TWSTA=1 for Start, TWEN=1
    23c0:	94 ea       	ldi	r25, 0xA4	; 164
    23c2:	f5 01       	movw	r30, r10
    23c4:	94 83       	std	Z+4, r25	; 0x04
  do
  {
	  status=*(TWI_addr+TWCR);
    23c6:	f5 01       	movw	r30, r10
    23c8:	94 81       	ldd	r25, Z+4	; 0x04
  } while ((status&0x80)==0); // Wait for Status flag to be set
    23ca:	99 23       	and	r25, r25
    23cc:	e4 f7       	brge	.-8      	; 0x23c6 <TWI_Master_Receive+0x4a>
  temp8=(*(TWI_addr+TWSR)&0xF8);
    23ce:	91 81       	ldd	r25, Z+1	; 0x01
    23d0:	98 7f       	andi	r25, 0xF8	; 248
  if((temp8==0x08)||(temp8==0x10))   // Start or Repeated Start sent
    23d2:	98 30       	cpi	r25, 0x08	; 8
    23d4:	19 f0       	breq	.+6      	; 0x23dc <TWI_Master_Receive+0x60>
    23d6:	90 31       	cpi	r25, 0x10	; 16
    23d8:	09 f0       	breq	.+2      	; 0x23dc <TWI_Master_Receive+0x60>
    23da:	57 c0       	rjmp	.+174    	; 0x248a <TWI_Master_Receive+0x10e>
  {
	  *(TWI_addr+TWDR)=send_val;
    23dc:	f5 01       	movw	r30, r10
    23de:	63 83       	std	Z+3, r22	; 0x03
	  *(TWI_addr+TWCR) = 0x84;   // TWIINT=1 to clear flag, TWEN=1
    23e0:	94 e8       	ldi	r25, 0x84	; 132
    23e2:	94 83       	std	Z+4, r25	; 0x04
  }
  else
  {
	  return_val=bus_busy_error;
  }
  if(return_val==no_errors)
    23e4:	81 11       	cpse	r24, r1
    23e6:	59 c0       	rjmp	.+178    	; 0x249a <TWI_Master_Receive+0x11e>
  {
	  do
	  {
		  status=*(TWI_addr+TWCR);
    23e8:	f5 01       	movw	r30, r10
    23ea:	94 81       	ldd	r25, Z+4	; 0x04
	  } while ((status&0x80)==0); // Wait for Status flag to be set
    23ec:	99 23       	and	r25, r25
    23ee:	e4 f7       	brge	.-8      	; 0x23e8 <TWI_Master_Receive+0x6c>
	  temp8=(*(TWI_addr+TWSR)&0xF8);
    23f0:	91 81       	ldd	r25, Z+1	; 0x01
    23f2:	98 7f       	andi	r25, 0xF8	; 248
	  if(temp8==0x40)   // SLA+R sent, ACK received
    23f4:	90 34       	cpi	r25, 0x40	; 64
    23f6:	59 f4       	brne	.+22     	; 0x240e <TWI_Master_Receive+0x92>
	  {
		  if(num_bytes==1)
    23f8:	11 30       	cpi	r17, 0x01	; 1
    23fa:	19 f4       	brne	.+6      	; 0x2402 <TWI_Master_Receive+0x86>
		  {
			 *(TWI_addr+TWCR) = 0x84;   // TWIINT=1 to clear flag, TWEA=0 for NACK, TWEN=1 
    23fc:	94 e8       	ldi	r25, 0x84	; 132
    23fe:	94 83       	std	Z+4, r25	; 0x04
    2400:	46 c0       	rjmp	.+140    	; 0x248e <TWI_Master_Receive+0x112>
		  }
		  else
		  {
			  *(TWI_addr+TWCR) = 0xC4;   // TWIINT=1 to clear flag, TWEA=1 for ACK, TWEN=1
    2402:	94 ec       	ldi	r25, 0xC4	; 196
    2404:	f5 01       	movw	r30, r10
    2406:	94 83       	std	Z+4, r25	; 0x04
	  }
  }
  index=0;
  if(return_val==no_errors)
  {
	  while((num_bytes!=0)&&(return_val==no_errors))
    2408:	11 11       	cpse	r17, r1
    240a:	41 c0       	rjmp	.+130    	; 0x248e <TWI_Master_Receive+0x112>
    240c:	46 c0       	rjmp	.+140    	; 0x249a <TWI_Master_Receive+0x11e>
		  else
		  {
			  *(TWI_addr+TWCR) = 0xC4;   // TWIINT=1 to clear flag, TWEA=1 for ACK, TWEN=1
		  }
	  }
	  else if(temp8==0x48)  // SLA+R sent, NACK received
    240e:	98 34       	cpi	r25, 0x48	; 72
    2410:	09 f0       	breq	.+2      	; 0x2414 <TWI_Master_Receive+0x98>
    2412:	42 c0       	rjmp	.+132    	; 0x2498 <TWI_Master_Receive+0x11c>
	  {
		  *(TWI_addr+TWCR) = 0x94;   // TWIINT=1 to clear flag, TWSTO=1 for Stop, TWEN=1
    2414:	84 e9       	ldi	r24, 0x94	; 148
    2416:	f5 01       	movw	r30, r10
    2418:	84 83       	std	Z+4, r24	; 0x04
		  do
		  {
			  status=*(TWI_addr+TWCR);
    241a:	f5 01       	movw	r30, r10
    241c:	84 81       	ldd	r24, Z+4	; 0x04
		  } while ((status&(1<<TWSTO))!=0); // Wait for the Stop flag to be cleared // Wait for the Stop flag to be cleared
    241e:	84 fd       	sbrc	r24, 4
    2420:	fc cf       	rjmp	.-8      	; 0x241a <TWI_Master_Receive+0x9e>
		  return_val=NACK_error;
    2422:	82 e8       	ldi	r24, 0x82	; 130
    2424:	3a c0       	rjmp	.+116    	; 0x249a <TWI_Master_Receive+0x11e>
  {
	  while((num_bytes!=0)&&(return_val==no_errors))
	  {
		  do
		  {
			  status=*(TWI_addr+TWCR);
    2426:	f5 01       	movw	r30, r10
    2428:	94 81       	ldd	r25, Z+4	; 0x04
		  } while ((status&0x80)==0); // Wait for Status flag to be set
    242a:	99 23       	and	r25, r25
    242c:	e4 f7       	brge	.-8      	; 0x2426 <TWI_Master_Receive+0xaa>
		  temp8=(*(TWI_addr+TWSR)&0xF8);
    242e:	91 81       	ldd	r25, Z+1	; 0x01
    2430:	98 7f       	andi	r25, 0xF8	; 248
		  if(temp8==0x50)   // Data byte received, ACK sent
    2432:	90 35       	cpi	r25, 0x50	; 80
    2434:	79 f4       	brne	.+30     	; 0x2454 <TWI_Master_Receive+0xd8>
		  {
			num_bytes--;
    2436:	11 50       	subi	r17, 0x01	; 1
			rec_array[index]=*(TWI_addr+TWDR);
    2438:	93 81       	ldd	r25, Z+3	; 0x03
    243a:	f4 01       	movw	r30, r8
    243c:	e2 0f       	add	r30, r18
    243e:	f1 1d       	adc	r31, r1
    2440:	90 83       	st	Z, r25
			index++;
    2442:	2f 5f       	subi	r18, 0xFF	; 255
			if(num_bytes==1)
    2444:	11 30       	cpi	r17, 0x01	; 1
    2446:	19 f4       	brne	.+6      	; 0x244e <TWI_Master_Receive+0xd2>
			{
				*(TWI_addr+TWCR) = 0x84;   // TWIINT=1 to clear flag, TWEA=0 for NACK, TWEN=1
    2448:	f5 01       	movw	r30, r10
    244a:	54 83       	std	Z+4, r21	; 0x04
    244c:	ec cf       	rjmp	.-40     	; 0x2426 <TWI_Master_Receive+0xaa>
			}
			else
			{
				*(TWI_addr+TWCR) = 0xC4;   // TWIINT=1 to clear flag, TWEA=1 for ACK, TWEN=1
    244e:	f5 01       	movw	r30, r10
    2450:	34 83       	std	Z+4, r19	; 0x04
    2452:	18 c0       	rjmp	.+48     	; 0x2484 <TWI_Master_Receive+0x108>
			}
		  }
		  else if(temp8==0x58)  // Data byte received, NACK sent
    2454:	98 35       	cpi	r25, 0x58	; 88
    2456:	79 f4       	brne	.+30     	; 0x2476 <TWI_Master_Receive+0xfa>
		  {
			  num_bytes--;
    2458:	11 50       	subi	r17, 0x01	; 1
			  rec_array[index]=*(TWI_addr+TWDR);
    245a:	f5 01       	movw	r30, r10
    245c:	93 81       	ldd	r25, Z+3	; 0x03
    245e:	f4 01       	movw	r30, r8
    2460:	e2 0f       	add	r30, r18
    2462:	f1 1d       	adc	r31, r1
    2464:	90 83       	st	Z, r25
			  index++;
    2466:	2f 5f       	subi	r18, 0xFF	; 255
			  *(TWI_addr+TWCR) = 0x94;   // TWIINT=1 to clear flag, TWSTO=0 for Stop, TWEN=1
    2468:	f5 01       	movw	r30, r10
    246a:	44 83       	std	Z+4, r20	; 0x04
			  do
			  {
				  status=*(TWI_addr+TWCR);
    246c:	f5 01       	movw	r30, r10
    246e:	94 81       	ldd	r25, Z+4	; 0x04
			  } while ((status&(1<<TWSTO))!=0); // Wait for the Stop flag to be cleared // Wait for the Stop flag to be cleared
    2470:	94 fd       	sbrc	r25, 4
    2472:	fc cf       	rjmp	.-8      	; 0x246c <TWI_Master_Receive+0xf0>
    2474:	07 c0       	rjmp	.+14     	; 0x2484 <TWI_Master_Receive+0x108>
		  }
		  else if(temp8==0x38)  // Arbitration lost
    2476:	98 33       	cpi	r25, 0x38	; 56
    2478:	29 f4       	brne	.+10     	; 0x2484 <TWI_Master_Receive+0x108>
		  {
			  *(TWI_addr+TWCR) = 0x84;   // TWIINT=1 to clear flag, TWEN=1
    247a:	84 e8       	ldi	r24, 0x84	; 132
    247c:	f5 01       	movw	r30, r10
    247e:	84 83       	std	Z+4, r24	; 0x04
			  return_val=bus_busy_error;
    2480:	81 e8       	ldi	r24, 0x81	; 129
    2482:	0b c0       	rjmp	.+22     	; 0x249a <TWI_Master_Receive+0x11e>
	  }
  }
  index=0;
  if(return_val==no_errors)
  {
	  while((num_bytes!=0)&&(return_val==no_errors))
    2484:	11 11       	cpse	r17, r1
    2486:	cf cf       	rjmp	.-98     	; 0x2426 <TWI_Master_Receive+0xaa>
    2488:	08 c0       	rjmp	.+16     	; 0x249a <TWI_Master_Receive+0x11e>
	  *(TWI_addr+TWDR)=send_val;
	  *(TWI_addr+TWCR) = 0x84;   // TWIINT=1 to clear flag, TWEN=1
  }
  else
  {
	  return_val=bus_busy_error;
    248a:	81 e8       	ldi	r24, 0x81	; 129
    248c:	06 c0       	rjmp	.+12     	; 0x249a <TWI_Master_Receive+0x11e>

uint8_t TWI_Master_Receive(uint8_t volatile *TWI_addr, uint8_t device_addr, uint32_t internal_addr, uint8_t int_addr_bytes, uint8_t num_bytes, uint8_t * rec_array)
{
  uint8_t temp8, send_val, return_val, index, status;
  
  return_val=no_errors;
    248e:	20 e0       	ldi	r18, 0x00	; 0
		  else if(temp8==0x58)  // Data byte received, NACK sent
		  {
			  num_bytes--;
			  rec_array[index]=*(TWI_addr+TWDR);
			  index++;
			  *(TWI_addr+TWCR) = 0x94;   // TWIINT=1 to clear flag, TWSTO=0 for Stop, TWEN=1
    2490:	44 e9       	ldi	r20, 0x94	; 148
			{
				*(TWI_addr+TWCR) = 0x84;   // TWIINT=1 to clear flag, TWEA=0 for NACK, TWEN=1
			}
			else
			{
				*(TWI_addr+TWCR) = 0xC4;   // TWIINT=1 to clear flag, TWEA=1 for ACK, TWEN=1
    2492:	34 ec       	ldi	r19, 0xC4	; 196
			num_bytes--;
			rec_array[index]=*(TWI_addr+TWDR);
			index++;
			if(num_bytes==1)
			{
				*(TWI_addr+TWCR) = 0x84;   // TWIINT=1 to clear flag, TWEA=0 for NACK, TWEN=1
    2494:	54 e8       	ldi	r21, 0x84	; 132
    2496:	c7 cf       	rjmp	.-114    	; 0x2426 <TWI_Master_Receive+0xaa>
		  } while ((status&(1<<TWSTO))!=0); // Wait for the Stop flag to be cleared // Wait for the Stop flag to be cleared
		  return_val=NACK_error;
	  }
	  else
	  {
		  return_val=bus_busy_error;
    2498:	81 e8       	ldi	r24, 0x81	; 129
			  return_val=bus_busy_error;
		  }
	  }
  }
  return return_val;
}
    249a:	0f 90       	pop	r0
    249c:	df 91       	pop	r29
    249e:	cf 91       	pop	r28
    24a0:	1f 91       	pop	r17
    24a2:	0f 91       	pop	r16
    24a4:	ff 90       	pop	r15
    24a6:	ef 90       	pop	r14
    24a8:	df 90       	pop	r13
    24aa:	cf 90       	pop	r12
    24ac:	bf 90       	pop	r11
    24ae:	af 90       	pop	r10
    24b0:	9f 90       	pop	r9
    24b2:	8f 90       	pop	r8
    24b4:	08 95       	ret

000024b6 <long_serial_input>:
RETURNS: unsigned long
CAUTION: UART must be initialized first
************************************************************************/

uint32_t long_serial_input(uint8_t volatile *UART_addr)
{
    24b6:	8f 92       	push	r8
    24b8:	9f 92       	push	r9
    24ba:	af 92       	push	r10
    24bc:	bf 92       	push	r11
    24be:	ef 92       	push	r14
    24c0:	ff 92       	push	r15
    24c2:	0f 93       	push	r16
    24c4:	1f 93       	push	r17
    24c6:	cf 93       	push	r28
    24c8:	df 93       	push	r29
    24ca:	cd b7       	in	r28, 0x3d	; 61
    24cc:	de b7       	in	r29, 0x3e	; 62
    24ce:	2b 97       	sbiw	r28, 0x0b	; 11
    24d0:	0f b6       	in	r0, 0x3f	; 63
    24d2:	f8 94       	cli
    24d4:	de bf       	out	0x3e, r29	; 62
    24d6:	0f be       	out	0x3f, r0	; 63
    24d8:	cd bf       	out	0x3d, r28	; 61
    24da:	7c 01       	movw	r14, r24
    24dc:	fe 01       	movw	r30, r28
    24de:	31 96       	adiw	r30, 0x01	; 1
    24e0:	ce 01       	movw	r24, r28
    24e2:	0c 96       	adiw	r24, 0x0c	; 12
   uint8_t index,input,input_values[11];   
   uint32_t output_value;
      for(index=0;index<11;index++)
      {
        input_values[index]=0;
    24e4:	11 92       	st	Z+, r1

uint32_t long_serial_input(uint8_t volatile *UART_addr)
{
   uint8_t index,input,input_values[11];   
   uint32_t output_value;
      for(index=0;index<11;index++)
    24e6:	e8 17       	cp	r30, r24
    24e8:	f9 07       	cpc	r31, r25
    24ea:	e1 f7       	brne	.-8      	; 0x24e4 <long_serial_input+0x2e>
    24ec:	00 e0       	ldi	r16, 0x00	; 0
      }
      output_value=0xffffffff;
      index=0;
      do
      {
         input=UART_Receive(UART_addr);
    24ee:	c7 01       	movw	r24, r14
    24f0:	0e 94 25 1d 	call	0x3a4a	; 0x3a4a <UART_Receive>
    24f4:	18 2f       	mov	r17, r24
         if((input>=0x30)&&(input<=0x39))
    24f6:	80 ed       	ldi	r24, 0xD0	; 208
    24f8:	81 0f       	add	r24, r17
    24fa:	8a 30       	cpi	r24, 0x0A	; 10
    24fc:	68 f4       	brcc	.+26     	; 0x2518 <long_serial_input+0x62>
         {
           UART_Transmit(UART_addr,input);    // echo valid inputs only
    24fe:	61 2f       	mov	r22, r17
    2500:	c7 01       	movw	r24, r14
    2502:	0e 94 1e 1d 	call	0x3a3c	; 0x3a3c <UART_Transmit>
		   input_values[index]=input;
    2506:	e1 e0       	ldi	r30, 0x01	; 1
    2508:	f0 e0       	ldi	r31, 0x00	; 0
    250a:	ec 0f       	add	r30, r28
    250c:	fd 1f       	adc	r31, r29
    250e:	e0 0f       	add	r30, r16
    2510:	f1 1d       	adc	r31, r1
    2512:	10 83       	st	Z, r17
           index++;
    2514:	0f 5f       	subi	r16, 0xFF	; 255
    2516:	45 c0       	rjmp	.+138    	; 0x25a2 <long_serial_input+0xec>
         }
         else if ((input==BS)||(input==DEL))  // Putty uses DEL (127) or BS (0x08) for backspace
    2518:	18 30       	cpi	r17, 0x08	; 8
    251a:	11 f0       	breq	.+4      	; 0x2520 <long_serial_input+0x6a>
    251c:	1f 37       	cpi	r17, 0x7F	; 127
    251e:	a9 f4       	brne	.+42     	; 0x254a <long_serial_input+0x94>
         {
           index--;
    2520:	01 50       	subi	r16, 0x01	; 1
           input_values[index]=0;
    2522:	e1 e0       	ldi	r30, 0x01	; 1
    2524:	f0 e0       	ldi	r31, 0x00	; 0
    2526:	ec 0f       	add	r30, r28
    2528:	fd 1f       	adc	r31, r29
    252a:	e0 0f       	add	r30, r16
    252c:	f1 1d       	adc	r31, r1
    252e:	10 82       	st	Z, r1
		   UART_Transmit(UART_addr,BS);
    2530:	68 e0       	ldi	r22, 0x08	; 8
    2532:	c7 01       	movw	r24, r14
    2534:	0e 94 1e 1d 	call	0x3a3c	; 0x3a3c <UART_Transmit>
           UART_Transmit(UART_addr,space);
    2538:	60 e2       	ldi	r22, 0x20	; 32
    253a:	c7 01       	movw	r24, r14
    253c:	0e 94 1e 1d 	call	0x3a3c	; 0x3a3c <UART_Transmit>
           UART_Transmit(UART_addr,BS);
    2540:	68 e0       	ldi	r22, 0x08	; 8
    2542:	c7 01       	movw	r24, r14
    2544:	0e 94 1e 1d 	call	0x3a3c	; 0x3a3c <UART_Transmit>
    2548:	2c c0       	rjmp	.+88     	; 0x25a2 <long_serial_input+0xec>
         }
		 //*** Added '.' as a replacement for ENTER since CR or LF does not work for Atmel Studio Data Visualizer ****//
         else if ((input==CR)||(input==LF)||(input=='.'))
    254a:	1d 30       	cpi	r17, 0x0D	; 13
    254c:	21 f0       	breq	.+8      	; 0x2556 <long_serial_input+0xa0>
    254e:	1a 30       	cpi	r17, 0x0A	; 10
    2550:	11 f0       	breq	.+4      	; 0x2556 <long_serial_input+0xa0>
    2552:	1e 32       	cpi	r17, 0x2E	; 46
    2554:	31 f5       	brne	.+76     	; 0x25a2 <long_serial_input+0xec>
         {
            output_value=atol(input_values);
    2556:	ce 01       	movw	r24, r28
    2558:	01 96       	adiw	r24, 0x01	; 1
    255a:	0e 94 d8 1d 	call	0x3bb0	; 0x3bb0 <atol>
    255e:	4b 01       	movw	r8, r22
    2560:	5c 01       	movw	r10, r24
            UART_Transmit(UART_addr,CR);
    2562:	6d e0       	ldi	r22, 0x0D	; 13
    2564:	c7 01       	movw	r24, r14
    2566:	0e 94 1e 1d 	call	0x3a3c	; 0x3a3c <UART_Transmit>
			UART_Transmit(UART_addr,LF);
    256a:	6a e0       	ldi	r22, 0x0A	; 10
    256c:	c7 01       	movw	r24, r14
    256e:	0e 94 1e 1d 	call	0x3a3c	; 0x3a3c <UART_Transmit>
         }
         if(index==10)
    2572:	0a 30       	cpi	r16, 0x0A	; 10
    2574:	71 f4       	brne	.+28     	; 0x2592 <long_serial_input+0xdc>
         {
            output_value=atol(input_values);
    2576:	ce 01       	movw	r24, r28
    2578:	01 96       	adiw	r24, 0x01	; 1
    257a:	0e 94 d8 1d 	call	0x3bb0	; 0x3bb0 <atol>
    257e:	4b 01       	movw	r8, r22
    2580:	5c 01       	movw	r10, r24
            UART_Transmit(UART_addr,CR);
    2582:	6d e0       	ldi	r22, 0x0D	; 13
    2584:	c7 01       	movw	r24, r14
    2586:	0e 94 1e 1d 	call	0x3a3c	; 0x3a3c <UART_Transmit>
			UART_Transmit(UART_addr,LF);
    258a:	6a e0       	ldi	r22, 0x0A	; 10
    258c:	c7 01       	movw	r24, r14
    258e:	0e 94 1e 1d 	call	0x3a3c	; 0x3a3c <UART_Transmit>
         }
      }while(output_value==0xffffffff);
    2592:	8f ef       	ldi	r24, 0xFF	; 255
    2594:	88 16       	cp	r8, r24
    2596:	98 06       	cpc	r9, r24
    2598:	a8 06       	cpc	r10, r24
    259a:	b8 06       	cpc	r11, r24
    259c:	09 f4       	brne	.+2      	; 0x25a0 <long_serial_input+0xea>
    259e:	a7 cf       	rjmp	.-178    	; 0x24ee <long_serial_input+0x38>
    25a0:	04 c0       	rjmp	.+8      	; 0x25aa <long_serial_input+0xf4>
         {
            output_value=atol(input_values);
            UART_Transmit(UART_addr,CR);
			UART_Transmit(UART_addr,LF);
         }
         if(index==10)
    25a2:	0a 30       	cpi	r16, 0x0A	; 10
    25a4:	09 f0       	breq	.+2      	; 0x25a8 <long_serial_input+0xf2>
    25a6:	a3 cf       	rjmp	.-186    	; 0x24ee <long_serial_input+0x38>
    25a8:	e6 cf       	rjmp	.-52     	; 0x2576 <long_serial_input+0xc0>
			UART_Transmit(UART_addr,LF);
         }
      }while(output_value==0xffffffff);

return output_value;
}
    25aa:	c5 01       	movw	r24, r10
    25ac:	b4 01       	movw	r22, r8
    25ae:	2b 96       	adiw	r28, 0x0b	; 11
    25b0:	0f b6       	in	r0, 0x3f	; 63
    25b2:	f8 94       	cli
    25b4:	de bf       	out	0x3e, r29	; 62
    25b6:	0f be       	out	0x3f, r0	; 63
    25b8:	cd bf       	out	0x3d, r28	; 61
    25ba:	df 91       	pop	r29
    25bc:	cf 91       	pop	r28
    25be:	1f 91       	pop	r17
    25c0:	0f 91       	pop	r16
    25c2:	ff 90       	pop	r15
    25c4:	ef 90       	pop	r14
    25c6:	bf 90       	pop	r11
    25c8:	af 90       	pop	r10
    25ca:	9f 90       	pop	r9
    25cc:	8f 90       	pop	r8
    25ce:	08 95       	ret

000025d0 <main>:
	
	uint16_t temp16, num_entries, entry_num;
	uint32_t Current_directory, Entry_clus;
	FS_values_t * Drive_p;

	prnt_bffr=Export_print_buffer();
    25d0:	0e 94 2b 1d 	call	0x3a56	; 0x3a56 <Export_print_buffer>
    25d4:	d8 2f       	mov	r29, r24
    25d6:	c9 2f       	mov	r28, r25
	Output_Set(&PA,(LED3|OLED_C_D));
    25d8:	60 ec       	ldi	r22, 0xC0	; 192
    25da:	80 e2       	ldi	r24, 0x20	; 32
    25dc:	90 e0       	ldi	r25, 0x00	; 0
    25de:	0e 94 cd 09 	call	0x139a	; 0x139a <Output_Set>
	Output_Init(&PA,(LED3|OLED_C_D));
    25e2:	60 ec       	ldi	r22, 0xC0	; 192
    25e4:	80 e2       	ldi	r24, 0x20	; 32
    25e6:	90 e0       	ldi	r25, 0x00	; 0
    25e8:	0e 94 c8 09 	call	0x1390	; 0x1390 <Output_Init>
	Output_Set(&PB,(SD_CS|LED1|OLED_CS));
    25ec:	69 e1       	ldi	r22, 0x19	; 25
    25ee:	83 e2       	ldi	r24, 0x23	; 35
    25f0:	90 e0       	ldi	r25, 0x00	; 0
    25f2:	0e 94 cd 09 	call	0x139a	; 0x139a <Output_Set>
	Output_Init(&PB,(SD_CS|LED1|OLED_CS));
    25f6:	69 e1       	ldi	r22, 0x19	; 25
    25f8:	83 e2       	ldi	r24, 0x23	; 35
    25fa:	90 e0       	ldi	r25, 0x00	; 0
    25fc:	0e 94 c8 09 	call	0x1390	; 0x1390 <Output_Init>
	//Output_Set(&PC,(USER_LED));
	//Output_Init(&PC,(USER_LED));
	Output_Set(&PC,(0b10000000));
    2600:	60 e8       	ldi	r22, 0x80	; 128
    2602:	86 e2       	ldi	r24, 0x26	; 38
    2604:	90 e0       	ldi	r25, 0x00	; 0
    2606:	0e 94 cd 09 	call	0x139a	; 0x139a <Output_Set>
	Output_Init(&PC,(0b10000000));
    260a:	60 e8       	ldi	r22, 0x80	; 128
    260c:	86 e2       	ldi	r24, 0x26	; 38
    260e:	90 e0       	ldi	r25, 0x00	; 0
    2610:	0e 94 c8 09 	call	0x1390	; 0x1390 <Output_Init>
	Output_Set(&PE,(LED2));
    2614:	60 e1       	ldi	r22, 0x10	; 16
    2616:	8c e2       	ldi	r24, 0x2C	; 44
    2618:	90 e0       	ldi	r25, 0x00	; 0
    261a:	0e 94 cd 09 	call	0x139a	; 0x139a <Output_Set>
	Output_Init(&PE,(LED2));
    261e:	60 e1       	ldi	r22, 0x10	; 16
    2620:	8c e2       	ldi	r24, 0x2C	; 44
    2622:	90 e0       	ldi	r25, 0x00	; 0
    2624:	0e 94 c8 09 	call	0x1390	; 0x1390 <Output_Init>
	
	SPI_Master_Init(&SPI0,400000);
    2628:	40 e8       	ldi	r20, 0x80	; 128
    262a:	5a e1       	ldi	r21, 0x1A	; 26
    262c:	66 e0       	ldi	r22, 0x06	; 6
    262e:	70 e0       	ldi	r23, 0x00	; 0
    2630:	8c e4       	ldi	r24, 0x4C	; 76
    2632:	90 e0       	ldi	r25, 0x00	; 0
    2634:	0e 94 47 1a 	call	0x348e	; 0x348e <SPI_Master_Init>
	//OLED_Init();
	UART_init(&UART1,9600);
    2638:	60 e8       	ldi	r22, 0x80	; 128
    263a:	75 e2       	ldi	r23, 0x25	; 37
    263c:	88 ec       	ldi	r24, 0xC8	; 200
    263e:	90 e0       	ldi	r25, 0x00	; 0
    2640:	0e 94 f7 1c 	call	0x39ee	; 0x39ee <UART_init>
	SD_Card_Init();
    2644:	0e 94 7b 16 	call	0x2cf6	; 0x2cf6 <SD_Card_Init>
	SPI_Master_Init(&SPI0,2000000);
    2648:	40 e8       	ldi	r20, 0x80	; 128
    264a:	54 e8       	ldi	r21, 0x84	; 132
    264c:	6e e1       	ldi	r22, 0x1E	; 30
    264e:	70 e0       	ldi	r23, 0x00	; 0
    2650:	8c e4       	ldi	r24, 0x4C	; 76
    2652:	90 e0       	ldi	r25, 0x00	; 0
    2654:	0e 94 47 1a 	call	0x348e	; 0x348e <SPI_Master_Init>
	
	TWI_Master_Init(&TWI1,25000);
    2658:	48 ea       	ldi	r20, 0xA8	; 168
    265a:	51 e6       	ldi	r21, 0x61	; 97
    265c:	60 e0       	ldi	r22, 0x00	; 0
    265e:	70 e0       	ldi	r23, 0x00	; 0
    2660:	88 ed       	ldi	r24, 0xD8	; 216
    2662:	90 e0       	ldi	r25, 0x00	; 0
    2664:	0e 94 92 10 	call	0x2124	; 0x2124 <TWI_Master_Init>
	STA013_Init();
    2668:	0e 94 d5 1a 	call	0x35aa	; 0x35aa <STA013_Init>
	
	Mount_Drive(buffer1);
    266c:	87 e5       	ldi	r24, 0x57	; 87
    266e:	94 e0       	ldi	r25, 0x04	; 4
    2670:	0e 94 a1 0c 	call	0x1942	; 0x1942 <Mount_Drive>
	Drive_p=Export_Drive_values();
    2674:	0e 94 d8 09 	call	0x13b0	; 0x13b0 <Export_Drive_values>
    2678:	fc 01       	movw	r30, r24
	Current_directory=Drive_p->FirstRootDirSec;
    267a:	e6 80       	ldd	r14, Z+6	; 0x06
    267c:	f7 80       	ldd	r15, Z+7	; 0x07
    267e:	00 85       	ldd	r16, Z+8	; 0x08
    2680:	11 85       	ldd	r17, Z+9	; 0x09
    while (1) 
    {
		 sprintf(prnt_bffr,"Directory Sector = %lu\n\r",Current_directory);
    2682:	0f 2e       	mov	r0, r31
    2684:	f7 e6       	ldi	r31, 0x67	; 103
    2686:	cf 2e       	mov	r12, r31
    2688:	f1 e0       	ldi	r31, 0x01	; 1
    268a:	df 2e       	mov	r13, r31
    268c:	f0 2d       	mov	r31, r0
    268e:	1f 93       	push	r17
    2690:	0f 93       	push	r16
    2692:	ff 92       	push	r15
    2694:	ef 92       	push	r14
    2696:	df 92       	push	r13
    2698:	cf 92       	push	r12
    269a:	cf 93       	push	r28
    269c:	df 93       	push	r29
    269e:	0e 94 14 1e 	call	0x3c28	; 0x3c28 <sprintf>
		 UART_Transmit_String(&UART1,0,prnt_bffr);
    26a2:	4d 2f       	mov	r20, r29
    26a4:	5c 2f       	mov	r21, r28
    26a6:	60 e0       	ldi	r22, 0x00	; 0
    26a8:	88 ec       	ldi	r24, 0xC8	; 200
    26aa:	90 e0       	ldi	r25, 0x00	; 0
    26ac:	0e 94 4e 1d 	call	0x3a9c	; 0x3a9c <UART_Transmit_String>
		 num_entries=Print_Directory(Current_directory, buffer1);
    26b0:	47 e5       	ldi	r20, 0x57	; 87
    26b2:	54 e0       	ldi	r21, 0x04	; 4
    26b4:	6e 2d       	mov	r22, r14
    26b6:	7f 2d       	mov	r23, r15
    26b8:	80 2f       	mov	r24, r16
    26ba:	91 2f       	mov	r25, r17
    26bc:	0e 94 db 09 	call	0x13b6	; 0x13b6 <Print_Directory>
    26c0:	5c 01       	movw	r10, r24
		 sprintf(prnt_bffr,"Enter Selection = ");
    26c2:	83 e1       	ldi	r24, 0x13	; 19
    26c4:	e0 e8       	ldi	r30, 0x80	; 128
    26c6:	f1 e0       	ldi	r31, 0x01	; 1
    26c8:	ad 2f       	mov	r26, r29
    26ca:	bc 2f       	mov	r27, r28
    26cc:	01 90       	ld	r0, Z+
    26ce:	0d 92       	st	X+, r0
    26d0:	8a 95       	dec	r24
    26d2:	e1 f7       	brne	.-8      	; 0x26cc <main+0xfc>
		 UART_Transmit_String(&UART1,0,prnt_bffr);
    26d4:	4d 2f       	mov	r20, r29
    26d6:	5c 2f       	mov	r21, r28
    26d8:	60 e0       	ldi	r22, 0x00	; 0
    26da:	88 ec       	ldi	r24, 0xC8	; 200
    26dc:	90 e0       	ldi	r25, 0x00	; 0
    26de:	0e 94 4e 1d 	call	0x3a9c	; 0x3a9c <UART_Transmit_String>
		 entry_num=(uint16_t)long_serial_input(&UART1);
    26e2:	88 ec       	ldi	r24, 0xC8	; 200
    26e4:	90 e0       	ldi	r25, 0x00	; 0
    26e6:	0e 94 5b 12 	call	0x24b6	; 0x24b6 <long_serial_input>
		 if(entry_num<=num_entries)
    26ea:	2d b7       	in	r18, 0x3d	; 61
    26ec:	3e b7       	in	r19, 0x3e	; 62
    26ee:	28 5f       	subi	r18, 0xF8	; 248
    26f0:	3f 4f       	sbci	r19, 0xFF	; 255
    26f2:	0f b6       	in	r0, 0x3f	; 63
    26f4:	f8 94       	cli
    26f6:	3e bf       	out	0x3e, r19	; 62
    26f8:	0f be       	out	0x3f, r0	; 63
    26fa:	2d bf       	out	0x3d, r18	; 61
    26fc:	a6 16       	cp	r10, r22
    26fe:	b7 06       	cpc	r11, r23
    2700:	c0 f0       	brcs	.+48     	; 0x2732 <main+0x162>
		 {
			 Entry_clus=Read_Dir_Entry(Current_directory, entry_num, buffer1);
    2702:	27 e5       	ldi	r18, 0x57	; 87
    2704:	34 e0       	ldi	r19, 0x04	; 4
    2706:	ab 01       	movw	r20, r22
    2708:	6e 2d       	mov	r22, r14
    270a:	7f 2d       	mov	r23, r15
    270c:	80 2f       	mov	r24, r16
    270e:	91 2f       	mov	r25, r17
    2710:	0e 94 2c 0b 	call	0x1658	; 0x1658 <Read_Dir_Entry>
			 if((Entry_clus&directory_bit)==directory_bit)
    2714:	94 ff       	sbrs	r25, 4
    2716:	08 c0       	rjmp	.+16     	; 0x2728 <main+0x158>
			 {
				 Entry_clus&=0x0FFFFFFF;
				 Current_directory=First_Sector(Entry_clus);
    2718:	9f 70       	andi	r25, 0x0F	; 15
    271a:	0e 94 14 0f 	call	0x1e28	; 0x1e28 <First_Sector>
    271e:	e6 2e       	mov	r14, r22
    2720:	f7 2e       	mov	r15, r23
    2722:	08 2f       	mov	r16, r24
    2724:	19 2f       	mov	r17, r25
    2726:	b3 cf       	rjmp	.-154    	; 0x268e <main+0xbe>
			 }
			 else
			 {
				 Open_File(Entry_clus, buffer1);
    2728:	47 e5       	ldi	r20, 0x57	; 87
    272a:	54 e0       	ldi	r21, 0x04	; 4
    272c:	0e 94 a5 0f 	call	0x1f4a	; 0x1f4a <Open_File>
    2730:	ae cf       	rjmp	.-164    	; 0x268e <main+0xbe>
			 }
			 
		 }
		 else
		 {
			 sprintf(prnt_bffr,"Invalid Selection\n\r");
    2732:	84 e1       	ldi	r24, 0x14	; 20
    2734:	e3 e9       	ldi	r30, 0x93	; 147
    2736:	f1 e0       	ldi	r31, 0x01	; 1
    2738:	ad 2f       	mov	r26, r29
    273a:	bc 2f       	mov	r27, r28
    273c:	01 90       	ld	r0, Z+
    273e:	0d 92       	st	X+, r0
    2740:	8a 95       	dec	r24
    2742:	e1 f7       	brne	.-8      	; 0x273c <main+0x16c>
			 UART_Transmit_String(&UART1,0,prnt_bffr);
    2744:	4d 2f       	mov	r20, r29
    2746:	5c 2f       	mov	r21, r28
    2748:	60 e0       	ldi	r22, 0x00	; 0
    274a:	88 ec       	ldi	r24, 0xC8	; 200
    274c:	90 e0       	ldi	r25, 0x00	; 0
    274e:	0e 94 4e 1d 	call	0x3a9c	; 0x3a9c <UART_Transmit_String>
    2752:	9d cf       	rjmp	.-198    	; 0x268e <main+0xbe>

00002754 <__vector_9>:
************************************************************************/



ISR(TIMER2_COMPA_vect)
{
    2754:	1f 92       	push	r1
    2756:	0f 92       	push	r0
    2758:	0f b6       	in	r0, 0x3f	; 63
    275a:	0f 92       	push	r0
    275c:	11 24       	eor	r1, r1
    275e:	2f 93       	push	r18
    2760:	3f 93       	push	r19
    2762:	4f 93       	push	r20
    2764:	5f 93       	push	r21
    2766:	6f 93       	push	r22
    2768:	7f 93       	push	r23
    276a:	8f 93       	push	r24
    276c:	9f 93       	push	r25
    276e:	af 93       	push	r26
    2770:	bf 93       	push	r27
    2772:	ef 93       	push	r30
    2774:	ff 93       	push	r31
   FS_values_t * Drive_p;
   uint8_t timeout, DR_input, buffer_flag;

   Drive_p=Export_Drive_values();
    2776:	0e 94 d8 09 	call	0x13b0	; 0x13b0 <Export_Drive_values>
   switch(play_state_g)
    277a:	80 91 64 06 	lds	r24, 0x0664	; 0x800664 <play_state_g>
    277e:	88 23       	and	r24, r24
    2780:	61 f0       	breq	.+24     	; 0x279a <__vector_9+0x46>
    2782:	86 30       	cpi	r24, 0x06	; 6
    2784:	79 f4       	brne	.+30     	; 0x27a4 <__vector_9+0x50>
   {
     case data_idle_1:
     {
        DR_input=Read_Pin(&PC,DATA_REQ);
    2786:	60 e4       	ldi	r22, 0x40	; 64
    2788:	86 e2       	ldi	r24, 0x26	; 38
    278a:	90 e0       	ldi	r25, 0x00	; 0
    278c:	0e 94 5a 15 	call	0x2ab4	; 0x2ab4 <Read_Pin>
		if(DR_input==0)
    2790:	81 11       	cpse	r24, r1
    2792:	08 c0       	rjmp	.+16     	; 0x27a4 <__vector_9+0x50>
	    {
	      play_state_g=send_data_1;
    2794:	10 92 64 06 	sts	0x0664, r1	; 0x800664 <play_state_g>
    2798:	05 c0       	rjmp	.+10     	; 0x27a4 <__vector_9+0x50>
        break;
     }
    case send_data_1:
     {
       buffer_flag=0;
	   DR_input=Read_Pin(&PC,DATA_REQ);
    279a:	60 e4       	ldi	r22, 0x40	; 64
    279c:	86 e2       	ldi	r24, 0x26	; 38
    279e:	90 e0       	ldi	r25, 0x00	; 0
    27a0:	0e 94 5a 15 	call	0x2ab4	; 0x2ab4 <Read_Pin>
  
	  break;
	 }

    }   
}
    27a4:	ff 91       	pop	r31
    27a6:	ef 91       	pop	r30
    27a8:	bf 91       	pop	r27
    27aa:	af 91       	pop	r26
    27ac:	9f 91       	pop	r25
    27ae:	8f 91       	pop	r24
    27b0:	7f 91       	pop	r23
    27b2:	6f 91       	pop	r22
    27b4:	5f 91       	pop	r21
    27b6:	4f 91       	pop	r20
    27b8:	3f 91       	pop	r19
    27ba:	2f 91       	pop	r18
    27bc:	0f 90       	pop	r0
    27be:	0f be       	out	0x3f, r0	; 63
    27c0:	0f 90       	pop	r0
    27c2:	1f 90       	pop	r1
    27c4:	18 95       	reti

000027c6 <Play_MP3_file>:


void Play_MP3_file(uint32_t begin_cluster)
{
    27c6:	cf 92       	push	r12
    27c8:	df 92       	push	r13
    27ca:	ef 92       	push	r14
    27cc:	ff 92       	push	r15
    27ce:	0f 93       	push	r16
    27d0:	1f 93       	push	r17
    27d2:	cf 93       	push	r28
    27d4:	df 93       	push	r29
    27d6:	6b 01       	movw	r12, r22
    27d8:	7c 01       	movw	r14, r24
   FS_values_t * Drive_p;

   Drive_p=Export_Drive_values();
    27da:	0e 94 d8 09 	call	0x13b0	; 0x13b0 <Export_Drive_values>
    27de:	ec 01       	movw	r28, r24
   //**** LEDS initialized for debugging ****//
   Output_Set(&PA,(LED3));
    27e0:	60 e8       	ldi	r22, 0x80	; 128
    27e2:	80 e2       	ldi	r24, 0x20	; 32
    27e4:	90 e0       	ldi	r25, 0x00	; 0
    27e6:	0e 94 cd 09 	call	0x139a	; 0x139a <Output_Set>
   Output_Init(&PA,(LED3));
    27ea:	60 e8       	ldi	r22, 0x80	; 128
    27ec:	80 e2       	ldi	r24, 0x20	; 32
    27ee:	90 e0       	ldi	r25, 0x00	; 0
    27f0:	0e 94 c8 09 	call	0x1390	; 0x1390 <Output_Init>
   Output_Set(&PB,(LED1));
    27f4:	68 e0       	ldi	r22, 0x08	; 8
    27f6:	83 e2       	ldi	r24, 0x23	; 35
    27f8:	90 e0       	ldi	r25, 0x00	; 0
    27fa:	0e 94 cd 09 	call	0x139a	; 0x139a <Output_Set>
   Output_Init(&PB,(LED1));
    27fe:	68 e0       	ldi	r22, 0x08	; 8
    2800:	83 e2       	ldi	r24, 0x23	; 35
    2802:	90 e0       	ldi	r25, 0x00	; 0
    2804:	0e 94 c8 09 	call	0x1390	; 0x1390 <Output_Init>
   Output_Set(&PC,(USER_LED));
    2808:	60 e8       	ldi	r22, 0x80	; 128
    280a:	86 e2       	ldi	r24, 0x26	; 38
    280c:	90 e0       	ldi	r25, 0x00	; 0
    280e:	0e 94 cd 09 	call	0x139a	; 0x139a <Output_Set>
   Output_Init(&PC,(USER_LED));
    2812:	60 e8       	ldi	r22, 0x80	; 128
    2814:	86 e2       	ldi	r24, 0x26	; 38
    2816:	90 e0       	ldi	r25, 0x00	; 0
    2818:	0e 94 c8 09 	call	0x1390	; 0x1390 <Output_Init>
   Output_Set(&PE,(LED2));
    281c:	60 e1       	ldi	r22, 0x10	; 16
    281e:	8c e2       	ldi	r24, 0x2C	; 44
    2820:	90 e0       	ldi	r25, 0x00	; 0
    2822:	0e 94 cd 09 	call	0x139a	; 0x139a <Output_Set>
   Output_Init(&PE,(LED2));
    2826:	60 e1       	ldi	r22, 0x10	; 16
    2828:	8c e2       	ldi	r24, 0x2C	; 44
    282a:	90 e0       	ldi	r25, 0x00	; 0
    282c:	0e 94 c8 09 	call	0x1390	; 0x1390 <Output_Init>
   Output_Clear(&PD,(BIT_EN));
    2830:	60 e4       	ldi	r22, 0x40	; 64
    2832:	89 e2       	ldi	r24, 0x29	; 41
    2834:	90 e0       	ldi	r25, 0x00	; 0
    2836:	0e 94 d2 09 	call	0x13a4	; 0x13a4 <Output_Clear>
   Output_Init(&PD,(BIT_EN));
    283a:	60 e4       	ldi	r22, 0x40	; 64
    283c:	89 e2       	ldi	r24, 0x29	; 41
    283e:	90 e0       	ldi	r25, 0x00	; 0
    2840:	0e 94 c8 09 	call	0x1390	; 0x1390 <Output_Init>
   Pull_Up_Enable(&PC,(DATA_REQ));
    2844:	60 e4       	ldi	r22, 0x40	; 64
    2846:	86 e2       	ldi	r24, 0x26	; 38
    2848:	90 e0       	ldi	r25, 0x00	; 0
    284a:	0e 94 55 15 	call	0x2aaa	; 0x2aaa <Pull_Up_Enable>
   Input_Init(&PC,(DATA_REQ));
    284e:	60 e4       	ldi	r22, 0x40	; 64
    2850:	86 e2       	ldi	r24, 0x26	; 38
    2852:	90 e0       	ldi	r25, 0x00	; 0
    2854:	0e 94 4f 15 	call	0x2a9e	; 0x2a9e <Input_Init>
   
   
   cluster_g=begin_cluster;
    2858:	c0 92 67 06 	sts	0x0667, r12	; 0x800667 <cluster_g>
    285c:	d0 92 68 06 	sts	0x0668, r13	; 0x800668 <cluster_g+0x1>
    2860:	e0 92 69 06 	sts	0x0669, r14	; 0x800669 <cluster_g+0x2>
    2864:	f0 92 6a 06 	sts	0x066A, r15	; 0x80066a <cluster_g+0x3>
   sector_g=First_Sector(begin_cluster);
    2868:	c7 01       	movw	r24, r14
    286a:	b6 01       	movw	r22, r12
    286c:	0e 94 14 0f 	call	0x1e28	; 0x1e28 <First_Sector>
    2870:	60 93 60 06 	sts	0x0660, r22	; 0x800660 <sector_g>
    2874:	70 93 61 06 	sts	0x0661, r23	; 0x800661 <sector_g+0x1>
    2878:	80 93 62 06 	sts	0x0662, r24	; 0x800662 <sector_g+0x2>
    287c:	90 93 63 06 	sts	0x0663, r25	; 0x800663 <sector_g+0x3>
   num_sectors_g=0;
    2880:	10 92 58 06 	sts	0x0658, r1	; 0x800658 <num_sectors_g>
    2884:	e7 e5       	ldi	r30, 0x57	; 87
    2886:	f4 e0       	ldi	r31, 0x04	; 4
    2888:	27 e5       	ldi	r18, 0x57	; 87
    288a:	36 e0       	ldi	r19, 0x06	; 6
   for(index1_g=0;index1_g<512;index1_g++)
   {
     buffer1[index1_g]=0;  
    288c:	11 92       	st	Z+, r1
   
   
   cluster_g=begin_cluster;
   sector_g=First_Sector(begin_cluster);
   num_sectors_g=0;
   for(index1_g=0;index1_g<512;index1_g++)
    288e:	e2 17       	cp	r30, r18
    2890:	f3 07       	cpc	r31, r19
    2892:	e1 f7       	brne	.-8      	; 0x288c <Play_MP3_file+0xc6>
   {
     buffer1[index1_g]=0;  
   }
   index1_g=0;
    2894:	10 92 6c 06 	sts	0x066C, r1	; 0x80066c <index1_g+0x1>
    2898:	10 92 6b 06 	sts	0x066B, r1	; 0x80066b <index1_g>
    289c:	e7 e5       	ldi	r30, 0x57	; 87
    289e:	f2 e0       	ldi	r31, 0x02	; 2
    28a0:	27 e5       	ldi	r18, 0x57	; 87
    28a2:	34 e0       	ldi	r19, 0x04	; 4
   for(index2_g=0;index2_g<512;index2_g++)
   {
     buffer2[index2_g]=0;
    28a4:	11 92       	st	Z+, r1
   for(index1_g=0;index1_g<512;index1_g++)
   {
     buffer1[index1_g]=0;  
   }
   index1_g=0;
   for(index2_g=0;index2_g<512;index2_g++)
    28a6:	e2 17       	cp	r30, r18
    28a8:	f3 07       	cpc	r31, r19
    28aa:	e1 f7       	brne	.-8      	; 0x28a4 <Play_MP3_file+0xde>
   {
     buffer2[index2_g]=0;
   }
   index2_g=0;
    28ac:	10 92 5f 06 	sts	0x065F, r1	; 0x80065f <index2_g+0x1>
    28b0:	10 92 5e 06 	sts	0x065E, r1	; 0x80065e <index2_g>
   Read_Sector((sector_g+num_sectors_g), (Drive_p->BytesPerSec),buffer1);
    28b4:	4c 81       	ldd	r20, Y+4	; 0x04
    28b6:	5d 81       	ldd	r21, Y+5	; 0x05
    28b8:	27 e5       	ldi	r18, 0x57	; 87
    28ba:	34 e0       	ldi	r19, 0x04	; 4
    28bc:	0e 94 61 15 	call	0x2ac2	; 0x2ac2 <Read_Sector>
   num_sectors_g++;
    28c0:	80 91 58 06 	lds	r24, 0x0658	; 0x800658 <num_sectors_g>
    28c4:	8f 5f       	subi	r24, 0xFF	; 255
    28c6:	80 93 58 06 	sts	0x0658, r24	; 0x800658 <num_sectors_g>
   index1_g=0;
    28ca:	10 92 6c 06 	sts	0x066C, r1	; 0x80066c <index1_g+0x1>
    28ce:	10 92 6b 06 	sts	0x066B, r1	; 0x80066b <index1_g>
   Read_Sector((sector_g+num_sectors_g), (Drive_p->BytesPerSec),buffer2);
    28d2:	4c 81       	ldd	r20, Y+4	; 0x04
    28d4:	5d 81       	ldd	r21, Y+5	; 0x05
    28d6:	00 91 60 06 	lds	r16, 0x0660	; 0x800660 <sector_g>
    28da:	10 91 61 06 	lds	r17, 0x0661	; 0x800661 <sector_g+0x1>
    28de:	20 91 62 06 	lds	r18, 0x0662	; 0x800662 <sector_g+0x2>
    28e2:	30 91 63 06 	lds	r19, 0x0663	; 0x800663 <sector_g+0x3>
    28e6:	68 01       	movw	r12, r16
    28e8:	79 01       	movw	r14, r18
    28ea:	c8 0e       	add	r12, r24
    28ec:	d1 1c       	adc	r13, r1
    28ee:	e1 1c       	adc	r14, r1
    28f0:	f1 1c       	adc	r15, r1
    28f2:	c7 01       	movw	r24, r14
    28f4:	b6 01       	movw	r22, r12
    28f6:	27 e5       	ldi	r18, 0x57	; 87
    28f8:	32 e0       	ldi	r19, 0x02	; 2
    28fa:	0e 94 61 15 	call	0x2ac2	; 0x2ac2 <Read_Sector>
   num_sectors_g++;
    28fe:	80 91 58 06 	lds	r24, 0x0658	; 0x800658 <num_sectors_g>
    2902:	8f 5f       	subi	r24, 0xFF	; 255
    2904:	80 93 58 06 	sts	0x0658, r24	; 0x800658 <num_sectors_g>
   index2_g=0;
    2908:	10 92 5f 06 	sts	0x065F, r1	; 0x80065f <index2_g+0x1>
    290c:	10 92 5e 06 	sts	0x065E, r1	; 0x80065e <index2_g>
   play_state_g=send_data_1;
    2910:	10 92 64 06 	sts	0x0664, r1	; 0x800664 <play_state_g>
   play_status_g=1;
    2914:	81 e0       	ldi	r24, 0x01	; 1
    2916:	80 93 57 06 	sts	0x0657, r24	; 0x800657 <play_status_g>
   Timer2_Interrupt_Init(MP3_timeout_ms);
    291a:	8c e0       	ldi	r24, 0x0C	; 12
    291c:	0e 94 d9 1c 	call	0x39b2	; 0x39b2 <Timer2_Interrupt_Init>
   sei();
    2920:	78 94       	sei
   //set_sleep_mode(SLEEP_MODE_IDLE);
   while(play_status_g!=0)
    2922:	80 91 57 06 	lds	r24, 0x0657	; 0x800657 <play_status_g>
    2926:	81 11       	cpse	r24, r1
    2928:	fc cf       	rjmp	.-8      	; 0x2922 <Play_MP3_file+0x15c>
   {
     //sleep_mode();  //Go to Sleep
   }
   cli();
    292a:	f8 94       	cli
}
    292c:	df 91       	pop	r29
    292e:	cf 91       	pop	r28
    2930:	1f 91       	pop	r17
    2932:	0f 91       	pop	r16
    2934:	ff 90       	pop	r15
    2936:	ef 90       	pop	r14
    2938:	df 90       	pop	r13
    293a:	cf 90       	pop	r12
    293c:	08 95       	ret

0000293e <print_16bytes>:
INPUT: Pointer to an array of eight bytes
RETURNS: nothing
CAUTION: 
************************************************************************/
void print_16bytes(uint8_t volatile * UART_addr, uint8_t * array_in, uint16_t offset)
{
    293e:	8f 92       	push	r8
    2940:	9f 92       	push	r9
    2942:	af 92       	push	r10
    2944:	bf 92       	push	r11
    2946:	cf 92       	push	r12
    2948:	df 92       	push	r13
    294a:	ef 92       	push	r14
    294c:	ff 92       	push	r15
    294e:	0f 93       	push	r16
    2950:	1f 93       	push	r17
    2952:	cf 93       	push	r28
    2954:	df 93       	push	r29
    2956:	7c 01       	movw	r14, r24
    2958:	eb 01       	movw	r28, r22
    295a:	8a 01       	movw	r16, r20
   uint8_t * input;
   uint8_t index, dat;
   char * prnt_bffr;
   
   prnt_bffr=Export_print_buffer();
    295c:	0e 94 2b 1d 	call	0x3a56	; 0x3a56 <Export_print_buffer>
    2960:	c8 2e       	mov	r12, r24
    2962:	d9 2e       	mov	r13, r25
   
   input = array_in+offset;
    2964:	c0 0f       	add	r28, r16
    2966:	d1 1f       	adc	r29, r17
   sprintf(prnt_bffr, "%p ",input);
    2968:	df 93       	push	r29
    296a:	cf 93       	push	r28
    296c:	87 ea       	ldi	r24, 0xA7	; 167
    296e:	91 e0       	ldi	r25, 0x01	; 1
    2970:	9f 93       	push	r25
    2972:	8f 93       	push	r24
    2974:	df 92       	push	r13
    2976:	cf 92       	push	r12
    2978:	0e 94 14 1e 	call	0x3c28	; 0x3c28 <sprintf>
   UART_Transmit_String(UART_addr,0,prnt_bffr);
    297c:	4c 2d       	mov	r20, r12
    297e:	5d 2d       	mov	r21, r13
    2980:	60 e0       	ldi	r22, 0x00	; 0
    2982:	c7 01       	movw	r24, r14
    2984:	0e 94 4e 1d 	call	0x3a9c	; 0x3a9c <UART_Transmit_String>
   sprintf(prnt_bffr,"0x%4.4X  ",offset);
    2988:	1f 93       	push	r17
    298a:	0f 93       	push	r16
    298c:	8b ea       	ldi	r24, 0xAB	; 171
    298e:	91 e0       	ldi	r25, 0x01	; 1
    2990:	9f 93       	push	r25
    2992:	8f 93       	push	r24
    2994:	df 92       	push	r13
    2996:	cf 92       	push	r12
    2998:	0e 94 14 1e 	call	0x3c28	; 0x3c28 <sprintf>
   UART_Transmit_String(UART_addr,0,prnt_bffr);
    299c:	4c 2d       	mov	r20, r12
    299e:	5d 2d       	mov	r21, r13
    29a0:	60 e0       	ldi	r22, 0x00	; 0
    29a2:	c7 01       	movw	r24, r14
    29a4:	0e 94 4e 1d 	call	0x3a9c	; 0x3a9c <UART_Transmit_String>
    29a8:	8e 01       	movw	r16, r28
    29aa:	5e 01       	movw	r10, r28
    29ac:	e0 e1       	ldi	r30, 0x10	; 16
    29ae:	ae 0e       	add	r10, r30
    29b0:	b1 1c       	adc	r11, r1
    29b2:	8d b7       	in	r24, 0x3d	; 61
    29b4:	9e b7       	in	r25, 0x3e	; 62
    29b6:	0c 96       	adiw	r24, 0x0c	; 12
    29b8:	0f b6       	in	r0, 0x3f	; 63
    29ba:	f8 94       	cli
    29bc:	9e bf       	out	0x3e, r25	; 62
    29be:	0f be       	out	0x3f, r0	; 63
    29c0:	8d bf       	out	0x3d, r24	; 61
   for (index=0;index<16;index++)
   {
      dat=*(input+index);
      sprintf(prnt_bffr, "%2.2X ",dat);   // Changed from %2.2bX because this printf function can correctly determine number of bytes
    29c2:	0f 2e       	mov	r0, r31
    29c4:	f5 eb       	ldi	r31, 0xB5	; 181
    29c6:	8f 2e       	mov	r8, r31
    29c8:	f1 e0       	ldi	r31, 0x01	; 1
    29ca:	9f 2e       	mov	r9, r31
    29cc:	f0 2d       	mov	r31, r0
   UART_Transmit_String(UART_addr,0,prnt_bffr);
   sprintf(prnt_bffr,"0x%4.4X  ",offset);
   UART_Transmit_String(UART_addr,0,prnt_bffr);
   for (index=0;index<16;index++)
   {
      dat=*(input+index);
    29ce:	89 91       	ld	r24, Y+
      sprintf(prnt_bffr, "%2.2X ",dat);   // Changed from %2.2bX because this printf function can correctly determine number of bytes
    29d0:	1f 92       	push	r1
    29d2:	8f 93       	push	r24
    29d4:	9f 92       	push	r9
    29d6:	8f 92       	push	r8
    29d8:	df 92       	push	r13
    29da:	cf 92       	push	r12
    29dc:	0e 94 14 1e 	call	0x3c28	; 0x3c28 <sprintf>
	  UART_Transmit_String(UART_addr,0,prnt_bffr);
    29e0:	4c 2d       	mov	r20, r12
    29e2:	5d 2d       	mov	r21, r13
    29e4:	60 e0       	ldi	r22, 0x00	; 0
    29e6:	c7 01       	movw	r24, r14
    29e8:	0e 94 4e 1d 	call	0x3a9c	; 0x3a9c <UART_Transmit_String>
   input = array_in+offset;
   sprintf(prnt_bffr, "%p ",input);
   UART_Transmit_String(UART_addr,0,prnt_bffr);
   sprintf(prnt_bffr,"0x%4.4X  ",offset);
   UART_Transmit_String(UART_addr,0,prnt_bffr);
   for (index=0;index<16;index++)
    29ec:	0f 90       	pop	r0
    29ee:	0f 90       	pop	r0
    29f0:	0f 90       	pop	r0
    29f2:	0f 90       	pop	r0
    29f4:	0f 90       	pop	r0
    29f6:	0f 90       	pop	r0
    29f8:	ac 16       	cp	r10, r28
    29fa:	bd 06       	cpc	r11, r29
    29fc:	41 f7       	brne	.-48     	; 0x29ce <print_16bytes+0x90>
      sprintf(prnt_bffr, "%2.2X ",dat);   // Changed from %2.2bX because this printf function can correctly determine number of bytes
	  UART_Transmit_String(UART_addr,0,prnt_bffr);
   }
   for (index=0;index<16;index++)
   { 
      dat=*(input+index);
    29fe:	f8 01       	movw	r30, r16
    2a00:	61 91       	ld	r22, Z+
    2a02:	8f 01       	movw	r16, r30
      if (dat<32 || dat>127) dat=46;
    2a04:	80 ee       	ldi	r24, 0xE0	; 224
    2a06:	86 0f       	add	r24, r22
    2a08:	80 36       	cpi	r24, 0x60	; 96
    2a0a:	08 f0       	brcs	.+2      	; 0x2a0e <print_16bytes+0xd0>
    2a0c:	6e e2       	ldi	r22, 0x2E	; 46
      UART_Transmit(UART_addr,dat);
    2a0e:	c7 01       	movw	r24, r14
    2a10:	0e 94 1e 1d 	call	0x3a3c	; 0x3a3c <UART_Transmit>
   {
      dat=*(input+index);
      sprintf(prnt_bffr, "%2.2X ",dat);   // Changed from %2.2bX because this printf function can correctly determine number of bytes
	  UART_Transmit_String(UART_addr,0,prnt_bffr);
   }
   for (index=0;index<16;index++)
    2a14:	0a 15       	cp	r16, r10
    2a16:	1b 05       	cpc	r17, r11
    2a18:	91 f7       	brne	.-28     	; 0x29fe <print_16bytes+0xc0>
   { 
      dat=*(input+index);
      if (dat<32 || dat>127) dat=46;
      UART_Transmit(UART_addr,dat);
   }
   UART_Transmit(UART_addr,CR);
    2a1a:	6d e0       	ldi	r22, 0x0D	; 13
    2a1c:	c7 01       	movw	r24, r14
    2a1e:	0e 94 1e 1d 	call	0x3a3c	; 0x3a3c <UART_Transmit>
   UART_Transmit(UART_addr,LF);
    2a22:	6a e0       	ldi	r22, 0x0A	; 10
    2a24:	c7 01       	movw	r24, r14
    2a26:	0e 94 1e 1d 	call	0x3a3c	; 0x3a3c <UART_Transmit>
}
    2a2a:	df 91       	pop	r29
    2a2c:	cf 91       	pop	r28
    2a2e:	1f 91       	pop	r17
    2a30:	0f 91       	pop	r16
    2a32:	ff 90       	pop	r15
    2a34:	ef 90       	pop	r14
    2a36:	df 90       	pop	r13
    2a38:	cf 90       	pop	r12
    2a3a:	bf 90       	pop	r11
    2a3c:	af 90       	pop	r10
    2a3e:	9f 90       	pop	r9
    2a40:	8f 90       	pop	r8
    2a42:	08 95       	ret

00002a44 <print_memory>:
INPUT: Pointer to an array, number of bytes to print
RETURNS: nothing
CAUTION: 
************************************************************************/
void print_memory(uint8_t volatile * UART_addr, uint16_t number_of_bytes, uint8_t * array_in)
{
    2a44:	cf 92       	push	r12
    2a46:	df 92       	push	r13
    2a48:	ef 92       	push	r14
    2a4a:	ff 92       	push	r15
    2a4c:	0f 93       	push	r16
    2a4e:	1f 93       	push	r17
    2a50:	cf 93       	push	r28
    2a52:	df 93       	push	r29
    2a54:	8c 01       	movw	r16, r24
    2a56:	6b 01       	movw	r12, r22
    2a58:	7a 01       	movw	r14, r20
   uint16_t input;
   char * prnt_bffr;
   
   prnt_bffr=Export_print_buffer();
    2a5a:	0e 94 2b 1d 	call	0x3a56	; 0x3a56 <Export_print_buffer>
    2a5e:	ec 01       	movw	r28, r24
   
   input = 0;
   Copy_String_to_Buffer(Prnt_bytes_prnt,0,prnt_bffr);
    2a60:	ac 01       	movw	r20, r24
    2a62:	60 e0       	ldi	r22, 0x00	; 0
    2a64:	82 e3       	ldi	r24, 0x32	; 50
    2a66:	91 e1       	ldi	r25, 0x11	; 17
    2a68:	0e 94 2e 1d 	call	0x3a5c	; 0x3a5c <Copy_String_to_Buffer>
   UART_Transmit_String(UART_addr,0,prnt_bffr);
    2a6c:	ae 01       	movw	r20, r28
    2a6e:	60 e0       	ldi	r22, 0x00	; 0
    2a70:	c8 01       	movw	r24, r16
    2a72:	0e 94 4e 1d 	call	0x3a9c	; 0x3a9c <UART_Transmit_String>
   uint16_t input;
   char * prnt_bffr;
   
   prnt_bffr=Export_print_buffer();
   
   input = 0;
    2a76:	c0 e0       	ldi	r28, 0x00	; 0
    2a78:	d0 e0       	ldi	r29, 0x00	; 0
   Copy_String_to_Buffer(Prnt_bytes_prnt,0,prnt_bffr);
   UART_Transmit_String(UART_addr,0,prnt_bffr);
   do
   {
      print_16bytes(UART_addr,array_in,input);
    2a7a:	ae 01       	movw	r20, r28
    2a7c:	b7 01       	movw	r22, r14
    2a7e:	c8 01       	movw	r24, r16
    2a80:	0e 94 9f 14 	call	0x293e	; 0x293e <print_16bytes>
      input+=16;
    2a84:	60 96       	adiw	r28, 0x10	; 16
   }while(input<(number_of_bytes));
    2a86:	cc 15       	cp	r28, r12
    2a88:	dd 05       	cpc	r29, r13
    2a8a:	b8 f3       	brcs	.-18     	; 0x2a7a <print_memory+0x36>
}
    2a8c:	df 91       	pop	r29
    2a8e:	cf 91       	pop	r28
    2a90:	1f 91       	pop	r17
    2a92:	0f 91       	pop	r16
    2a94:	ff 90       	pop	r15
    2a96:	ef 90       	pop	r14
    2a98:	df 90       	pop	r13
    2a9a:	cf 90       	pop	r12
    2a9c:	08 95       	ret

00002a9e <Input_Init>:
}

uint8_t Read_Inputs(uint8_t volatile * port_addr)
{
    return *(port_addr+PIN);  // returns the value in the PIN reg.
}
    2a9e:	fc 01       	movw	r30, r24
    2aa0:	91 81       	ldd	r25, Z+1	; 0x01
    2aa2:	60 95       	com	r22
    2aa4:	69 23       	and	r22, r25
    2aa6:	61 83       	std	Z+1, r22	; 0x01
    2aa8:	08 95       	ret

00002aaa <Pull_Up_Enable>:
    2aaa:	fc 01       	movw	r30, r24
    2aac:	22 81       	ldd	r18, Z+2	; 0x02
    2aae:	62 2b       	or	r22, r18
    2ab0:	62 83       	std	Z+2, r22	; 0x02
    2ab2:	08 95       	ret

00002ab4 <Read_Pin>:

uint8_t Read_Pin(uint8_t volatile * port_addr, uint8_t pin_mask)
{
	uint8_t temp8;   
	temp8 = *(port_addr+PIN);     
    2ab4:	fc 01       	movw	r30, r24
    2ab6:	80 81       	ld	r24, Z
	if((temp8&pin_mask)==0) temp8 = 0; // return 0 if pin==0   
	else temp8 = 1;                    // return 1 if pin==1
    return temp8;
    2ab8:	68 23       	and	r22, r24
    2aba:	81 e0       	ldi	r24, 0x01	; 1
    2abc:	09 f4       	brne	.+2      	; 0x2ac0 <Read_Pin+0xc>
    2abe:	80 e0       	ldi	r24, 0x00	; 0
}
    2ac0:	08 95       	ret

00002ac2 <Read_Sector>:




uint8_t Read_Sector(uint32_t sector_number, uint16_t sector_size, uint8_t * array_for_data)
{
    2ac2:	cf 92       	push	r12
    2ac4:	df 92       	push	r13
    2ac6:	ef 92       	push	r14
    2ac8:	ff 92       	push	r15
    2aca:	0f 93       	push	r16
    2acc:	1f 93       	push	r17
    2ace:	cf 93       	push	r28
    2ad0:	df 93       	push	r29
    2ad2:	6b 01       	movw	r12, r22
    2ad4:	7c 01       	movw	r14, r24
    2ad6:	ea 01       	movw	r28, r20
    2ad8:	89 01       	movw	r16, r18
	uint8_t SDtype,error_flag=No_Disk_Error;   

	//SDtype=Return_SD_Card_Type();
	Output_Clear(&PB,SD_CS);  // Clear nCS = 0
    2ada:	60 e1       	ldi	r22, 0x10	; 16
    2adc:	83 e2       	ldi	r24, 0x23	; 35
    2ade:	90 e0       	ldi	r25, 0x00	; 0
    2ae0:	0e 94 d2 09 	call	0x13a4	; 0x13a4 <Output_Clear>
    error_flag=Send_Command(17,(sector_number<<0));
    2ae4:	b7 01       	movw	r22, r14
    2ae6:	a6 01       	movw	r20, r12
    2ae8:	81 e1       	ldi	r24, 0x11	; 17
    2aea:	0e 94 97 15 	call	0x2b2e	; 0x2b2e <Send_Command>
    if(error_flag==no_errors) error_flag=Read_Block(sector_size,array_for_data);
    2aee:	81 11       	cpse	r24, r1
    2af0:	0e c0       	rjmp	.+28     	; 0x2b0e <Read_Sector+0x4c>
    2af2:	b8 01       	movw	r22, r16
    2af4:	ce 01       	movw	r24, r28
    2af6:	0e 94 20 16 	call	0x2c40	; 0x2c40 <Read_Block>
    2afa:	c8 2f       	mov	r28, r24
    Output_Set(&PB,SD_CS);  // Set nCS = 1
    2afc:	60 e1       	ldi	r22, 0x10	; 16
    2afe:	83 e2       	ldi	r24, 0x23	; 35
    2b00:	90 e0       	ldi	r25, 0x00	; 0
    2b02:	0e 94 cd 09 	call	0x139a	; 0x139a <Output_Set>

	if(error_flag!=no_errors)
    2b06:	cc 23       	and	r28, r28
    2b08:	41 f0       	breq	.+16     	; 0x2b1a <Read_Sector+0x58>
	{
       error_flag=Disk_Error;
    2b0a:	c0 ef       	ldi	r28, 0xF0	; 240
    2b0c:	06 c0       	rjmp	.+12     	; 0x2b1a <Read_Sector+0x58>

	//SDtype=Return_SD_Card_Type();
	Output_Clear(&PB,SD_CS);  // Clear nCS = 0
    error_flag=Send_Command(17,(sector_number<<0));
    if(error_flag==no_errors) error_flag=Read_Block(sector_size,array_for_data);
    Output_Set(&PB,SD_CS);  // Set nCS = 1
    2b0e:	60 e1       	ldi	r22, 0x10	; 16
    2b10:	83 e2       	ldi	r24, 0x23	; 35
    2b12:	90 e0       	ldi	r25, 0x00	; 0
    2b14:	0e 94 cd 09 	call	0x139a	; 0x139a <Output_Set>

	if(error_flag!=no_errors)
	{
       error_flag=Disk_Error;
    2b18:	c0 ef       	ldi	r28, 0xF0	; 240
    }
    return error_flag;
}
    2b1a:	8c 2f       	mov	r24, r28
    2b1c:	df 91       	pop	r29
    2b1e:	cf 91       	pop	r28
    2b20:	1f 91       	pop	r17
    2b22:	0f 91       	pop	r16
    2b24:	ff 90       	pop	r15
    2b26:	ef 90       	pop	r14
    2b28:	df 90       	pop	r13
    2b2a:	cf 90       	pop	r12
    2b2c:	08 95       	ret

00002b2e <Send_Command>:
RETURNS: error flag
CAUTION: Must be followed by a read to capture SD card response
         nCS0 must be set/cleared outside of this routine 
************************************************************************/
uint8_t Send_Command(uint8_t cmnd, uint32_t argum)
{
    2b2e:	cf 92       	push	r12
    2b30:	df 92       	push	r13
    2b32:	ef 92       	push	r14
    2b34:	ff 92       	push	r15
    2b36:	cf 93       	push	r28
 uint8_t SPI_send, return_val, SPI_return;

 return_val=no_errors;
 if(cmnd<64)
    2b38:	80 34       	cpi	r24, 0x40	; 64
    2b3a:	a0 f5       	brcc	.+104    	; 0x2ba4 <Send_Command+0x76>
    2b3c:	6a 01       	movw	r12, r20
    2b3e:	7b 01       	movw	r14, r22
    2b40:	c8 2f       	mov	r28, r24
 {
   SPI_send=cmnd | 0x40;
   SPI_return=SPI_Transfer(&SD_PORT,SPI_send);
    2b42:	68 2f       	mov	r22, r24
    2b44:	60 64       	ori	r22, 0x40	; 64
    2b46:	8c e4       	ldi	r24, 0x4C	; 76
    2b48:	90 e0       	ldi	r25, 0x00	; 0
    2b4a:	0e 94 ce 1a 	call	0x359c	; 0x359c <SPI_Transfer>
   //MSB of argument
   SPI_send=argum>>24;   // MSB
   SPI_return=SPI_Transfer(&SD_PORT,SPI_send);
    2b4e:	6f 2d       	mov	r22, r15
    2b50:	77 27       	eor	r23, r23
    2b52:	88 27       	eor	r24, r24
    2b54:	99 27       	eor	r25, r25
    2b56:	8c e4       	ldi	r24, 0x4C	; 76
    2b58:	90 e0       	ldi	r25, 0x00	; 0
    2b5a:	0e 94 ce 1a 	call	0x359c	; 0x359c <SPI_Transfer>
   // Byte 2 of argument
   argum=argum & 0x00ffffff;
   SPI_send=argum>>16;  // BYTE2
   SPI_return=SPI_Transfer(&SD_PORT,SPI_send);
    2b5e:	6e 2d       	mov	r22, r14
    2b60:	8c e4       	ldi	r24, 0x4C	; 76
    2b62:	90 e0       	ldi	r25, 0x00	; 0
    2b64:	0e 94 ce 1a 	call	0x359c	; 0x359c <SPI_Transfer>
   // Byte 1 of argument
   argum=argum & 0x0000ffff;
    2b68:	ee 24       	eor	r14, r14
    2b6a:	ff 24       	eor	r15, r15
   SPI_send=argum>>8;   // BYTE1
   SPI_return=SPI_Transfer(&SD_PORT,SPI_send);
    2b6c:	99 27       	eor	r25, r25
    2b6e:	8f 2d       	mov	r24, r15
    2b70:	7e 2d       	mov	r23, r14
    2b72:	6d 2d       	mov	r22, r13
    2b74:	8c e4       	ldi	r24, 0x4C	; 76
    2b76:	90 e0       	ldi	r25, 0x00	; 0
    2b78:	0e 94 ce 1a 	call	0x359c	; 0x359c <SPI_Transfer>
   // LSB of argument
   SPI_send=argum & 0x000000ff;  // LSB
   SPI_return=SPI_Transfer(&SD_PORT,SPI_send);
    2b7c:	6c 2d       	mov	r22, r12
    2b7e:	8c e4       	ldi	r24, 0x4C	; 76
    2b80:	90 e0       	ldi	r25, 0x00	; 0
    2b82:	0e 94 ce 1a 	call	0x359c	; 0x359c <SPI_Transfer>
   // CRC7 and end bit
   if (cmnd == 0)
    2b86:	cc 23       	and	r28, r28
    2b88:	21 f0       	breq	.+8      	; 0x2b92 <Send_Command+0x64>
   {
      SPI_send=0x95;  // CRC7 and end bit for CMD0
   }
   else if (cmnd == 8)
    2b8a:	c8 30       	cpi	r28, 0x08	; 8
    2b8c:	21 f0       	breq	.+8      	; 0x2b96 <Send_Command+0x68>
   {
      SPI_send=0x87;   // CRC7 and end bit for CMD8
   }
   else
   {
      SPI_send=0x01;  // end bit only for other commands
    2b8e:	61 e0       	ldi	r22, 0x01	; 1
    2b90:	03 c0       	rjmp	.+6      	; 0x2b98 <Send_Command+0x6a>
   SPI_send=argum & 0x000000ff;  // LSB
   SPI_return=SPI_Transfer(&SD_PORT,SPI_send);
   // CRC7 and end bit
   if (cmnd == 0)
   {
      SPI_send=0x95;  // CRC7 and end bit for CMD0
    2b92:	65 e9       	ldi	r22, 0x95	; 149
    2b94:	01 c0       	rjmp	.+2      	; 0x2b98 <Send_Command+0x6a>
   }
   else if (cmnd == 8)
   {
      SPI_send=0x87;   // CRC7 and end bit for CMD8
    2b96:	67 e8       	ldi	r22, 0x87	; 135
   }
   else
   {
      SPI_send=0x01;  // end bit only for other commands
   }
   SPI_return=SPI_Transfer(&SD_PORT,SPI_send);
    2b98:	8c e4       	ldi	r24, 0x4C	; 76
    2b9a:	90 e0       	ldi	r25, 0x00	; 0
    2b9c:	0e 94 ce 1a 	call	0x359c	; 0x359c <SPI_Transfer>
************************************************************************/
uint8_t Send_Command(uint8_t cmnd, uint32_t argum)
{
 uint8_t SPI_send, return_val, SPI_return;

 return_val=no_errors;
    2ba0:	80 e0       	ldi	r24, 0x00	; 0
    2ba2:	01 c0       	rjmp	.+2      	; 0x2ba6 <Send_Command+0x78>
   }
   SPI_return=SPI_Transfer(&SD_PORT,SPI_send);
 }
 else
 {
   return_val=illegal_cmnd;
    2ba4:	82 e8       	ldi	r24, 0x82	; 130
 }
 return return_val;  
}
    2ba6:	cf 91       	pop	r28
    2ba8:	ff 90       	pop	r15
    2baa:	ef 90       	pop	r14
    2bac:	df 90       	pop	r13
    2bae:	cf 90       	pop	r12
    2bb0:	08 95       	ret

00002bb2 <Receive_Response>:
         *valout=address of array of bytes read
CAUTION: Used to capture SD card response
         nCS0 must be set/cleared outside of this routine 
************************************************************************/
uint8_t Receive_Response(uint8_t num_bytes, uint8_t * valout)
{
    2bb2:	ef 92       	push	r14
    2bb4:	ff 92       	push	r15
    2bb6:	0f 93       	push	r16
    2bb8:	1f 93       	push	r17
    2bba:	cf 93       	push	r28
    2bbc:	df 93       	push	r29
    2bbe:	d8 2f       	mov	r29, r24
    2bc0:	8b 01       	movw	r16, r22
   uint8_t index,return_val, SPI_return;

   index=0;
    2bc2:	c0 e0       	ldi	r28, 0x00	; 0
   return_val=no_errors;
   do
   {
      SPI_return=SPI_Transfer(&SD_PORT,0xFF);
    2bc4:	6f ef       	ldi	r22, 0xFF	; 255
    2bc6:	8c e4       	ldi	r24, 0x4C	; 76
    2bc8:	90 e0       	ldi	r25, 0x00	; 0
    2bca:	0e 94 ce 1a 	call	0x359c	; 0x359c <SPI_Transfer>
      index++;
    2bce:	cf 5f       	subi	r28, 0xFF	; 255
   }while(((SPI_return&0x80)==0x80)&&(index!=0));
    2bd0:	88 23       	and	r24, r24
    2bd2:	24 f4       	brge	.+8      	; 0x2bdc <Receive_Response+0x2a>
    2bd4:	c1 11       	cpse	r28, r1
    2bd6:	f6 cf       	rjmp	.-20     	; 0x2bc4 <Receive_Response+0x12>
   if(index==0)
   {
      return_val=timeout_error;
    2bd8:	c1 e8       	ldi	r28, 0x81	; 129
    2bda:	25 c0       	rjmp	.+74     	; 0x2c26 <Receive_Response+0x74>
   do
   {
      SPI_return=SPI_Transfer(&SD_PORT,0xFF);
      index++;
   }while(((SPI_return&0x80)==0x80)&&(index!=0));
   if(index==0)
    2bdc:	cc 23       	and	r28, r28
    2bde:	f1 f0       	breq	.+60     	; 0x2c1c <Receive_Response+0x6a>
   {
      return_val=timeout_error;
   }
   else
   {
     *valout=SPI_return;
    2be0:	f8 01       	movw	r30, r16
    2be2:	80 83       	st	Z, r24
     if((SPI_return==0x00)||(SPI_return==0x01))
    2be4:	82 30       	cpi	r24, 0x02	; 2
    2be6:	e0 f4       	brcc	.+56     	; 0x2c20 <Receive_Response+0x6e>
     {
       if(num_bytes>1)
    2be8:	d2 30       	cpi	r29, 0x02	; 2
    2bea:	e0 f0       	brcs	.+56     	; 0x2c24 <Receive_Response+0x72>
    2bec:	78 01       	movw	r14, r16
    2bee:	ff ef       	ldi	r31, 0xFF	; 255
    2bf0:	ef 1a       	sub	r14, r31
    2bf2:	ff 0a       	sbc	r15, r31
    2bf4:	8e ef       	ldi	r24, 0xFE	; 254
    2bf6:	8d 0f       	add	r24, r29
    2bf8:	90 e0       	ldi	r25, 0x00	; 0
    2bfa:	02 96       	adiw	r24, 0x02	; 2
    2bfc:	e8 01       	movw	r28, r16
    2bfe:	c8 0f       	add	r28, r24
    2c00:	d9 1f       	adc	r29, r25
       {
         for(index=1;index<num_bytes;index++)
         {
            SPI_return=SPI_Transfer(&SD_PORT,0xFF);
    2c02:	6f ef       	ldi	r22, 0xFF	; 255
    2c04:	8c e4       	ldi	r24, 0x4C	; 76
    2c06:	90 e0       	ldi	r25, 0x00	; 0
    2c08:	0e 94 ce 1a 	call	0x359c	; 0x359c <SPI_Transfer>
            *(valout+index)=SPI_return;
    2c0c:	f7 01       	movw	r30, r14
    2c0e:	81 93       	st	Z+, r24
    2c10:	7f 01       	movw	r14, r30
     *valout=SPI_return;
     if((SPI_return==0x00)||(SPI_return==0x01))
     {
       if(num_bytes>1)
       {
         for(index=1;index<num_bytes;index++)
    2c12:	ec 17       	cp	r30, r28
    2c14:	fd 07       	cpc	r31, r29
    2c16:	a9 f7       	brne	.-22     	; 0x2c02 <Receive_Response+0x50>
uint8_t Receive_Response(uint8_t num_bytes, uint8_t * valout)
{
   uint8_t index,return_val, SPI_return;

   index=0;
   return_val=no_errors;
    2c18:	c0 e0       	ldi	r28, 0x00	; 0
    2c1a:	05 c0       	rjmp	.+10     	; 0x2c26 <Receive_Response+0x74>
      SPI_return=SPI_Transfer(&SD_PORT,0xFF);
      index++;
   }while(((SPI_return&0x80)==0x80)&&(index!=0));
   if(index==0)
   {
      return_val=timeout_error;
    2c1c:	c1 e8       	ldi	r28, 0x81	; 129
    2c1e:	03 c0       	rjmp	.+6      	; 0x2c26 <Receive_Response+0x74>
         }
       }
     }
     else
     {
        return_val=response_error;
    2c20:	c3 e8       	ldi	r28, 0x83	; 131
    2c22:	01 c0       	rjmp	.+2      	; 0x2c26 <Receive_Response+0x74>
uint8_t Receive_Response(uint8_t num_bytes, uint8_t * valout)
{
   uint8_t index,return_val, SPI_return;

   index=0;
   return_val=no_errors;
    2c24:	c0 e0       	ldi	r28, 0x00	; 0
     else
     {
        return_val=response_error;
     }
   }
   SPI_return=SPI_Transfer(&SD_PORT,0xFF);    // send 8 more clock cycles to complete read
    2c26:	6f ef       	ldi	r22, 0xFF	; 255
    2c28:	8c e4       	ldi	r24, 0x4C	; 76
    2c2a:	90 e0       	ldi	r25, 0x00	; 0
    2c2c:	0e 94 ce 1a 	call	0x359c	; 0x359c <SPI_Transfer>
   return return_val;
}
    2c30:	8c 2f       	mov	r24, r28
    2c32:	df 91       	pop	r29
    2c34:	cf 91       	pop	r28
    2c36:	1f 91       	pop	r17
    2c38:	0f 91       	pop	r16
    2c3a:	ff 90       	pop	r15
    2c3c:	ef 90       	pop	r14
    2c3e:	08 95       	ret

00002c40 <Read_Block>:
         block of data stored in array_out[]
CAUTION: Used to capture SD card response
         nCS0 must be set/cleared outside of this routine 
************************************************************************/
uint8_t Read_Block(uint16_t num_bytes, uint8_t * array_out)
{
    2c40:	ef 92       	push	r14
    2c42:	ff 92       	push	r15
    2c44:	0f 93       	push	r16
    2c46:	1f 93       	push	r17
    2c48:	cf 93       	push	r28
    2c4a:	df 93       	push	r29
    2c4c:	8c 01       	movw	r16, r24
    2c4e:	7b 01       	movw	r14, r22
   uint8_t return_val,SPI_return;
   uint16_t index;
   index=0;
    2c50:	c0 e0       	ldi	r28, 0x00	; 0
    2c52:	d0 e0       	ldi	r29, 0x00	; 0
   return_val=no_errors;
   do
   {
      SPI_return=SPI_Transfer(&SD_PORT,0xFF);
    2c54:	6f ef       	ldi	r22, 0xFF	; 255
    2c56:	8c e4       	ldi	r24, 0x4C	; 76
    2c58:	90 e0       	ldi	r25, 0x00	; 0
    2c5a:	0e 94 ce 1a 	call	0x359c	; 0x359c <SPI_Transfer>
      index++;
    2c5e:	21 96       	adiw	r28, 0x01	; 1
   }while(((SPI_return&0x80)==0x80)&&(index!=0));
    2c60:	88 23       	and	r24, r24
    2c62:	24 f4       	brge	.+8      	; 0x2c6c <Read_Block+0x2c>
    2c64:	20 97       	sbiw	r28, 0x00	; 0
    2c66:	b1 f7       	brne	.-20     	; 0x2c54 <Read_Block+0x14>
   if(index==0)
   {
      return_val=timeout_error;
    2c68:	c1 e8       	ldi	r28, 0x81	; 129
    2c6a:	38 c0       	rjmp	.+112    	; 0x2cdc <Read_Block+0x9c>
   do
   {
      SPI_return=SPI_Transfer(&SD_PORT,0xFF);
      index++;
   }while(((SPI_return&0x80)==0x80)&&(index!=0));
   if(index==0)
    2c6c:	cd 2b       	or	r28, r29
    2c6e:	79 f1       	breq	.+94     	; 0x2cce <Read_Block+0x8e>
   {
      return_val=timeout_error;
   }
   else
   {
     if (SPI_return==0x00)
    2c70:	81 11       	cpse	r24, r1
    2c72:	2f c0       	rjmp	.+94     	; 0x2cd2 <Read_Block+0x92>
    2c74:	c0 e0       	ldi	r28, 0x00	; 0
    2c76:	d0 e0       	ldi	r29, 0x00	; 0
     {
        index=0;
	    do
        { 
           SPI_return=SPI_Transfer(&SD_PORT,0xFF); 
    2c78:	6f ef       	ldi	r22, 0xFF	; 255
    2c7a:	8c e4       	ldi	r24, 0x4C	; 76
    2c7c:	90 e0       	ldi	r25, 0x00	; 0
    2c7e:	0e 94 ce 1a 	call	0x359c	; 0x359c <SPI_Transfer>
           index++;
    2c82:	21 96       	adiw	r28, 0x01	; 1
        }while((SPI_return==0xFF)&&(index!=0));          // wait for data token response  
    2c84:	8f 3f       	cpi	r24, 0xFF	; 255
    2c86:	21 f4       	brne	.+8      	; 0x2c90 <Read_Block+0x50>
    2c88:	20 97       	sbiw	r28, 0x00	; 0
    2c8a:	b1 f7       	brne	.-20     	; 0x2c78 <Read_Block+0x38>
        if(index==0)
        {
          return_val=timeout_error;
    2c8c:	c1 e8       	ldi	r28, 0x81	; 129
    2c8e:	26 c0       	rjmp	.+76     	; 0x2cdc <Read_Block+0x9c>
	    do
        { 
           SPI_return=SPI_Transfer(&SD_PORT,0xFF); 
           index++;
        }while((SPI_return==0xFF)&&(index!=0));          // wait for data token response  
        if(index==0)
    2c90:	cd 2b       	or	r28, r29
    2c92:	09 f1       	breq	.+66     	; 0x2cd6 <Read_Block+0x96>
        {
          return_val=timeout_error;
        }
        else if(SPI_return==0xFE)
    2c94:	8e 3f       	cpi	r24, 0xFE	; 254
    2c96:	09 f5       	brne	.+66     	; 0x2cda <Read_Block+0x9a>
        {
          for(index=0;index<num_bytes;index++)
    2c98:	01 15       	cp	r16, r1
    2c9a:	11 05       	cpc	r17, r1
    2c9c:	61 f0       	breq	.+24     	; 0x2cb6 <Read_Block+0x76>
    2c9e:	e7 01       	movw	r28, r14
    2ca0:	0e 0d       	add	r16, r14
    2ca2:	1f 1d       	adc	r17, r15
          {
             SPI_return=SPI_Transfer(&SD_PORT,0xFF);
    2ca4:	6f ef       	ldi	r22, 0xFF	; 255
    2ca6:	8c e4       	ldi	r24, 0x4C	; 76
    2ca8:	90 e0       	ldi	r25, 0x00	; 0
    2caa:	0e 94 ce 1a 	call	0x359c	; 0x359c <SPI_Transfer>
             *(array_out + index)=SPI_return;
    2cae:	89 93       	st	Y+, r24
        {
          return_val=timeout_error;
        }
        else if(SPI_return==0xFE)
        {
          for(index=0;index<num_bytes;index++)
    2cb0:	c0 17       	cp	r28, r16
    2cb2:	d1 07       	cpc	r29, r17
    2cb4:	b9 f7       	brne	.-18     	; 0x2ca4 <Read_Block+0x64>
          {
             SPI_return=SPI_Transfer(&SD_PORT,0xFF);
             *(array_out + index)=SPI_return;
          }
          SPI_return=SPI_Transfer(&SD_PORT,0xFF);   // discard byte 1 of CRC16
    2cb6:	6f ef       	ldi	r22, 0xFF	; 255
    2cb8:	8c e4       	ldi	r24, 0x4C	; 76
    2cba:	90 e0       	ldi	r25, 0x00	; 0
    2cbc:	0e 94 ce 1a 	call	0x359c	; 0x359c <SPI_Transfer>
		  SPI_return=SPI_Transfer(&SD_PORT,0xFF);   // discard byte 2 of CRC16
    2cc0:	6f ef       	ldi	r22, 0xFF	; 255
    2cc2:	8c e4       	ldi	r24, 0x4C	; 76
    2cc4:	90 e0       	ldi	r25, 0x00	; 0
    2cc6:	0e 94 ce 1a 	call	0x359c	; 0x359c <SPI_Transfer>
uint8_t Read_Block(uint16_t num_bytes, uint8_t * array_out)
{
   uint8_t return_val,SPI_return;
   uint16_t index;
   index=0;
   return_val=no_errors;
    2cca:	c0 e0       	ldi	r28, 0x00	; 0
    2ccc:	07 c0       	rjmp	.+14     	; 0x2cdc <Read_Block+0x9c>
      SPI_return=SPI_Transfer(&SD_PORT,0xFF);
      index++;
   }while(((SPI_return&0x80)==0x80)&&(index!=0));
   if(index==0)
   {
      return_val=timeout_error;
    2cce:	c1 e8       	ldi	r28, 0x81	; 129
    2cd0:	05 c0       	rjmp	.+10     	; 0x2cdc <Read_Block+0x9c>
	      return_val=data_error;
	    }
     }
     else
     {
        return_val=response_error;
    2cd2:	c3 e8       	ldi	r28, 0x83	; 131
    2cd4:	03 c0       	rjmp	.+6      	; 0x2cdc <Read_Block+0x9c>
           SPI_return=SPI_Transfer(&SD_PORT,0xFF); 
           index++;
        }while((SPI_return==0xFF)&&(index!=0));          // wait for data token response  
        if(index==0)
        {
          return_val=timeout_error;
    2cd6:	c1 e8       	ldi	r28, 0x81	; 129
    2cd8:	01 c0       	rjmp	.+2      	; 0x2cdc <Read_Block+0x9c>
          SPI_return=SPI_Transfer(&SD_PORT,0xFF);   // discard byte 1 of CRC16
		  SPI_return=SPI_Transfer(&SD_PORT,0xFF);   // discard byte 2 of CRC16
        }
	    else
	    {
	      return_val=data_error;
    2cda:	c4 e8       	ldi	r28, 0x84	; 132
     else
     {
        return_val=response_error;
     }
   }
   SPI_return=SPI_Transfer(&SD_PORT,0xFF);   // send 8 more clock cycles to complete read
    2cdc:	6f ef       	ldi	r22, 0xFF	; 255
    2cde:	8c e4       	ldi	r24, 0x4C	; 76
    2ce0:	90 e0       	ldi	r25, 0x00	; 0
    2ce2:	0e 94 ce 1a 	call	0x359c	; 0x359c <SPI_Transfer>
   return return_val;
}
    2ce6:	8c 2f       	mov	r24, r28
    2ce8:	df 91       	pop	r29
    2cea:	cf 91       	pop	r28
    2cec:	1f 91       	pop	r17
    2cee:	0f 91       	pop	r16
    2cf0:	ff 90       	pop	r15
    2cf2:	ef 90       	pop	r14
    2cf4:	08 95       	ret

00002cf6 <SD_Card_Init>:
DESC:    Sends the commands needed to initialize the SD card 
RETURNS: error flag
CAUTION:  
************************************************************************/
uint8_t SD_Card_Init(void)
{
    2cf6:	8f 92       	push	r8
    2cf8:	9f 92       	push	r9
    2cfa:	af 92       	push	r10
    2cfc:	bf 92       	push	r11
    2cfe:	df 92       	push	r13
    2d00:	ef 92       	push	r14
    2d02:	ff 92       	push	r15
    2d04:	0f 93       	push	r16
    2d06:	1f 93       	push	r17
    2d08:	cf 93       	push	r28
    2d0a:	df 93       	push	r29
    2d0c:	cd b7       	in	r28, 0x3d	; 61
    2d0e:	de b7       	in	r29, 0x3e	; 62
    2d10:	28 97       	sbiw	r28, 0x08	; 8
    2d12:	0f b6       	in	r0, 0x3f	; 63
    2d14:	f8 94       	cli
    2d16:	de bf       	out	0x3e, r29	; 62
    2d18:	0f be       	out	0x3f, r0	; 63
    2d1a:	cd bf       	out	0x3d, r28	; 61
   uint8_t i,error_status,error_flag,valsout[8],SPI_return;
   uint32_t argument;
   uint16_t timeout;
   uint8_t *prnt_buffer;
   
   prnt_buffer=Export_print_buffer();
    2d1c:	0e 94 2b 1d 	call	0x3a56	; 0x3a56 <Export_print_buffer>
    2d20:	08 2f       	mov	r16, r24
    2d22:	d9 2e       	mov	r13, r25
   
   error_status=no_errors;
   SD_Card_Type=unknown;
    2d24:	8f ef       	ldi	r24, 0xFF	; 255
    2d26:	80 93 f0 01 	sts	0x01F0, r24	; 0x8001f0 <__data_end>
   
   	Output_Set(&PB,(SD_CS));
    2d2a:	60 e1       	ldi	r22, 0x10	; 16
    2d2c:	83 e2       	ldi	r24, 0x23	; 35
    2d2e:	90 e0       	ldi	r25, 0x00	; 0
    2d30:	0e 94 cd 09 	call	0x139a	; 0x139a <Output_Set>
   	Output_Init(&PB,(SD_CS));
    2d34:	60 e1       	ldi	r22, 0x10	; 16
    2d36:	83 e2       	ldi	r24, 0x23	; 35
    2d38:	90 e0       	ldi	r25, 0x00	; 0
    2d3a:	0e 94 c8 09 	call	0x1390	; 0x1390 <Output_Init>
   
   Copy_String_to_Buffer(SD_Card_Intro,0,prnt_buffer);
    2d3e:	40 2f       	mov	r20, r16
    2d40:	5d 2d       	mov	r21, r13
    2d42:	60 e0       	ldi	r22, 0x00	; 0
    2d44:	89 e6       	ldi	r24, 0x69	; 105
    2d46:	92 e1       	ldi	r25, 0x12	; 18
    2d48:	0e 94 2e 1d 	call	0x3a5c	; 0x3a5c <Copy_String_to_Buffer>
   UART_Transmit_String(&UART1,0,prnt_buffer);
    2d4c:	40 2f       	mov	r20, r16
    2d4e:	5d 2d       	mov	r21, r13
    2d50:	60 e0       	ldi	r22, 0x00	; 0
    2d52:	88 ec       	ldi	r24, 0xC8	; 200
    2d54:	90 e0       	ldi	r25, 0x00	; 0
    2d56:	0e 94 4e 1d 	call	0x3a9c	; 0x3a9c <UART_Transmit_String>
    2d5a:	1a e0       	ldi	r17, 0x0A	; 10

   
   for(i=0;i<10;i++)
   {
	   SPI_return=SPI_Transfer(&SD_PORT,0xFF);
    2d5c:	6f ef       	ldi	r22, 0xFF	; 255
    2d5e:	8c e4       	ldi	r24, 0x4C	; 76
    2d60:	90 e0       	ldi	r25, 0x00	; 0
    2d62:	0e 94 ce 1a 	call	0x359c	; 0x359c <SPI_Transfer>
    2d66:	11 50       	subi	r17, 0x01	; 1
   
   Copy_String_to_Buffer(SD_Card_Intro,0,prnt_buffer);
   UART_Transmit_String(&UART1,0,prnt_buffer);

   
   for(i=0;i<10;i++)
    2d68:	c9 f7       	brne	.-14     	; 0x2d5c <SD_Card_Init+0x66>
   {
	   SPI_return=SPI_Transfer(&SD_PORT,0xFF);
   }
   Output_Clear(&PB,(LED1));
    2d6a:	68 e0       	ldi	r22, 0x08	; 8
    2d6c:	83 e2       	ldi	r24, 0x23	; 35
    2d6e:	90 e0       	ldi	r25, 0x00	; 0
    2d70:	0e 94 d2 09 	call	0x13a4	; 0x13a4 <Output_Clear>
   Copy_String_to_Buffer(SD_Card_CMD0,0,prnt_buffer);
    2d74:	40 2f       	mov	r20, r16
    2d76:	5d 2d       	mov	r21, r13
    2d78:	60 e0       	ldi	r22, 0x00	; 0
    2d7a:	8a e5       	ldi	r24, 0x5A	; 90
    2d7c:	92 e1       	ldi	r25, 0x12	; 18
    2d7e:	0e 94 2e 1d 	call	0x3a5c	; 0x3a5c <Copy_String_to_Buffer>
   UART_Transmit_String(&UART1,0,prnt_buffer);
    2d82:	40 2f       	mov	r20, r16
    2d84:	5d 2d       	mov	r21, r13
    2d86:	60 e0       	ldi	r22, 0x00	; 0
    2d88:	88 ec       	ldi	r24, 0xC8	; 200
    2d8a:	90 e0       	ldi	r25, 0x00	; 0
    2d8c:	0e 94 4e 1d 	call	0x3a9c	; 0x3a9c <UART_Transmit_String>
   Output_Clear(&PC,USER_LED);
    2d90:	60 e8       	ldi	r22, 0x80	; 128
    2d92:	86 e2       	ldi	r24, 0x26	; 38
    2d94:	90 e0       	ldi	r25, 0x00	; 0
    2d96:	0e 94 d2 09 	call	0x13a4	; 0x13a4 <Output_Clear>
   Output_Clear(&PB,(SD_CS));  // Clear nCS = 0
    2d9a:	60 e1       	ldi	r22, 0x10	; 16
    2d9c:	83 e2       	ldi	r24, 0x23	; 35
    2d9e:	90 e0       	ldi	r25, 0x00	; 0
    2da0:	0e 94 d2 09 	call	0x13a4	; 0x13a4 <Output_Clear>
   error_flag=Send_Command(CMD0,0);
    2da4:	40 e0       	ldi	r20, 0x00	; 0
    2da6:	50 e0       	ldi	r21, 0x00	; 0
    2da8:	ba 01       	movw	r22, r20
    2daa:	80 e0       	ldi	r24, 0x00	; 0
    2dac:	0e 94 97 15 	call	0x2b2e	; 0x2b2e <Send_Command>
    2db0:	18 2f       	mov	r17, r24
   if(error_flag==no_errors)
    2db2:	81 11       	cpse	r24, r1
    2db4:	3a c0       	rjmp	.+116    	; 0x2e2a <SD_Card_Init+0x134>
   {
     error_flag=Receive_Response(1,valsout);
    2db6:	be 01       	movw	r22, r28
    2db8:	6f 5f       	subi	r22, 0xFF	; 255
    2dba:	7f 4f       	sbci	r23, 0xFF	; 255
    2dbc:	81 e0       	ldi	r24, 0x01	; 1
    2dbe:	0e 94 d9 15 	call	0x2bb2	; 0x2bb2 <Receive_Response>
    2dc2:	18 2f       	mov	r17, r24
	 Output_Set(&PB,(SD_CS));  // Set nCS = 1
    2dc4:	60 e1       	ldi	r22, 0x10	; 16
    2dc6:	83 e2       	ldi	r24, 0x23	; 35
    2dc8:	90 e0       	ldi	r25, 0x00	; 0
    2dca:	0e 94 cd 09 	call	0x139a	; 0x139a <Output_Set>
     Output_Set(&PB,(LED1));  //GREENLED=1;
    2dce:	68 e0       	ldi	r22, 0x08	; 8
    2dd0:	83 e2       	ldi	r24, 0x23	; 35
    2dd2:	90 e0       	ldi	r25, 0x00	; 0
    2dd4:	0e 94 cd 09 	call	0x139a	; 0x139a <Output_Set>
	 Copy_String_to_Buffer(SD_Card_Resp,0,prnt_buffer);
    2dd8:	40 2f       	mov	r20, r16
    2dda:	5d 2d       	mov	r21, r13
    2ddc:	60 e0       	ldi	r22, 0x00	; 0
    2dde:	8e e0       	ldi	r24, 0x0E	; 14
    2de0:	92 e1       	ldi	r25, 0x12	; 18
    2de2:	0e 94 2e 1d 	call	0x3a5c	; 0x3a5c <Copy_String_to_Buffer>
	 UART_Transmit_String(&UART1,0,prnt_buffer);
    2de6:	40 2f       	mov	r20, r16
    2de8:	5d 2d       	mov	r21, r13
    2dea:	60 e0       	ldi	r22, 0x00	; 0
    2dec:	88 ec       	ldi	r24, 0xC8	; 200
    2dee:	90 e0       	ldi	r25, 0x00	; 0
    2df0:	0e 94 4e 1d 	call	0x3a9c	; 0x3a9c <UART_Transmit_String>
     sprintf(prnt_buffer, "%2.2X\n\r",valsout[0]);
    2df4:	89 81       	ldd	r24, Y+1	; 0x01
    2df6:	1f 92       	push	r1
    2df8:	8f 93       	push	r24
    2dfa:	8c eb       	ldi	r24, 0xBC	; 188
    2dfc:	91 e0       	ldi	r25, 0x01	; 1
    2dfe:	9f 93       	push	r25
    2e00:	8f 93       	push	r24
    2e02:	df 92       	push	r13
    2e04:	0f 93       	push	r16
    2e06:	0e 94 14 1e 	call	0x3c28	; 0x3c28 <sprintf>
	 UART_Transmit_String(&UART1,0,prnt_buffer);
    2e0a:	40 2f       	mov	r20, r16
    2e0c:	5d 2d       	mov	r21, r13
    2e0e:	60 e0       	ldi	r22, 0x00	; 0
    2e10:	88 ec       	ldi	r24, 0xC8	; 200
    2e12:	90 e0       	ldi	r25, 0x00	; 0
    2e14:	0e 94 4e 1d 	call	0x3a9c	; 0x3a9c <UART_Transmit_String>
   }
   if(error_flag!=no_errors)
   {
     error_status=error_flag;
   }
   if(error_status==no_errors)
    2e18:	0f 90       	pop	r0
    2e1a:	0f 90       	pop	r0
    2e1c:	0f 90       	pop	r0
    2e1e:	0f 90       	pop	r0
    2e20:	0f 90       	pop	r0
    2e22:	0f 90       	pop	r0
    2e24:	11 23       	and	r17, r17
    2e26:	89 f0       	breq	.+34     	; 0x2e4a <SD_Card_Init+0x154>
    2e28:	1f c3       	rjmp	.+1598   	; 0x3468 <SD_Card_Init+0x772>
     sprintf(prnt_buffer, "%2.2X\n\r",valsout[0]);
	 UART_Transmit_String(&UART1,0,prnt_buffer);
   }
   else
   {
     Output_Set(&PB,(SD_CS));  // Set nCS = 1
    2e2a:	60 e1       	ldi	r22, 0x10	; 16
    2e2c:	83 e2       	ldi	r24, 0x23	; 35
    2e2e:	90 e0       	ldi	r25, 0x00	; 0
    2e30:	0e 94 cd 09 	call	0x139a	; 0x139a <Output_Set>
	 Output_Set(&PB,(LED1));  //GREENLED=1;
    2e34:	68 e0       	ldi	r22, 0x08	; 8
    2e36:	83 e2       	ldi	r24, 0x23	; 35
    2e38:	90 e0       	ldi	r25, 0x00	; 0
    2e3a:	0e 94 cd 09 	call	0x139a	; 0x139a <Output_Set>
	 Output_Clear(&PA,(LED3)); //REDLED=0;   indicates error has occured.
    2e3e:	60 e8       	ldi	r22, 0x80	; 128
    2e40:	80 e2       	ldi	r24, 0x20	; 32
    2e42:	90 e0       	ldi	r25, 0x00	; 0
    2e44:	0e 94 d2 09 	call	0x13a4	; 0x13a4 <Output_Clear>
    2e48:	c1 c1       	rjmp	.+898    	; 0x31cc <SD_Card_Init+0x4d6>
   {
     error_status=error_flag;
   }
   if(error_status==no_errors)
   {
     Output_Clear(&PB,(LED1));  //GREENLED=0;
    2e4a:	68 e0       	ldi	r22, 0x08	; 8
    2e4c:	83 e2       	ldi	r24, 0x23	; 35
    2e4e:	90 e0       	ldi	r25, 0x00	; 0
    2e50:	0e 94 d2 09 	call	0x13a4	; 0x13a4 <Output_Clear>
     Copy_String_to_Buffer(SD_Card_CMD8,0,prnt_buffer);
    2e54:	40 2f       	mov	r20, r16
    2e56:	5d 2d       	mov	r21, r13
    2e58:	60 e0       	ldi	r22, 0x00	; 0
    2e5a:	8b e4       	ldi	r24, 0x4B	; 75
    2e5c:	92 e1       	ldi	r25, 0x12	; 18
    2e5e:	0e 94 2e 1d 	call	0x3a5c	; 0x3a5c <Copy_String_to_Buffer>
     UART_Transmit_String(&UART1,0,prnt_buffer);
    2e62:	40 2f       	mov	r20, r16
    2e64:	5d 2d       	mov	r21, r13
    2e66:	60 e0       	ldi	r22, 0x00	; 0
    2e68:	88 ec       	ldi	r24, 0xC8	; 200
    2e6a:	90 e0       	ldi	r25, 0x00	; 0
    2e6c:	0e 94 4e 1d 	call	0x3a9c	; 0x3a9c <UART_Transmit_String>
     Output_Clear(&PB,(SD_CS));  // Clear nCS = 0
    2e70:	60 e1       	ldi	r22, 0x10	; 16
    2e72:	83 e2       	ldi	r24, 0x23	; 35
    2e74:	90 e0       	ldi	r25, 0x00	; 0
    2e76:	0e 94 d2 09 	call	0x13a4	; 0x13a4 <Output_Clear>
     error_flag=Send_Command(CMD8,0x000001AA);
    2e7a:	4a ea       	ldi	r20, 0xAA	; 170
    2e7c:	51 e0       	ldi	r21, 0x01	; 1
    2e7e:	60 e0       	ldi	r22, 0x00	; 0
    2e80:	70 e0       	ldi	r23, 0x00	; 0
    2e82:	88 e0       	ldi	r24, 0x08	; 8
    2e84:	0e 94 97 15 	call	0x2b2e	; 0x2b2e <Send_Command>
    2e88:	18 2f       	mov	r17, r24
	 if(error_flag==no_errors)
    2e8a:	81 11       	cpse	r24, r1
    2e8c:	56 c0       	rjmp	.+172    	; 0x2f3a <SD_Card_Init+0x244>
     {
        error_flag=Receive_Response(5,valsout);
    2e8e:	be 01       	movw	r22, r28
    2e90:	6f 5f       	subi	r22, 0xFF	; 255
    2e92:	7f 4f       	sbci	r23, 0xFF	; 255
    2e94:	85 e0       	ldi	r24, 0x05	; 5
    2e96:	0e 94 d9 15 	call	0x2bb2	; 0x2bb2 <Receive_Response>
    2e9a:	18 2f       	mov	r17, r24
		Output_Set(&PB,(SD_CS));  // Set nCS = 1
    2e9c:	60 e1       	ldi	r22, 0x10	; 16
    2e9e:	83 e2       	ldi	r24, 0x23	; 35
    2ea0:	90 e0       	ldi	r25, 0x00	; 0
    2ea2:	0e 94 cd 09 	call	0x139a	; 0x139a <Output_Set>
		Output_Set(&PB,(LED1));  //GREENLED=1;
    2ea6:	68 e0       	ldi	r22, 0x08	; 8
    2ea8:	83 e2       	ldi	r24, 0x23	; 35
    2eaa:	90 e0       	ldi	r25, 0x00	; 0
    2eac:	0e 94 cd 09 	call	0x139a	; 0x139a <Output_Set>
	    Copy_String_to_Buffer(SD_Card_Resp,0,prnt_buffer);
    2eb0:	40 2f       	mov	r20, r16
    2eb2:	5d 2d       	mov	r21, r13
    2eb4:	60 e0       	ldi	r22, 0x00	; 0
    2eb6:	8e e0       	ldi	r24, 0x0E	; 14
    2eb8:	92 e1       	ldi	r25, 0x12	; 18
    2eba:	0e 94 2e 1d 	call	0x3a5c	; 0x3a5c <Copy_String_to_Buffer>
	    UART_Transmit_String(&UART1,0,prnt_buffer);
    2ebe:	40 2f       	mov	r20, r16
    2ec0:	5d 2d       	mov	r21, r13
    2ec2:	60 e0       	ldi	r22, 0x00	; 0
    2ec4:	88 ec       	ldi	r24, 0xC8	; 200
    2ec6:	90 e0       	ldi	r25, 0x00	; 0
    2ec8:	0e 94 4e 1d 	call	0x3a9c	; 0x3a9c <UART_Transmit_String>
    2ecc:	ce 01       	movw	r24, r28
    2ece:	01 96       	adiw	r24, 0x01	; 1
    2ed0:	7c 01       	movw	r14, r24
    2ed2:	4e 01       	movw	r8, r28
    2ed4:	96 e0       	ldi	r25, 0x06	; 6
    2ed6:	89 0e       	add	r8, r25
    2ed8:	91 1c       	adc	r9, r1
        for(i=0;i<5;i++)
		{   
		        sprintf(prnt_buffer, "%2.2X ",valsout[i]);
    2eda:	0f 2e       	mov	r0, r31
    2edc:	f5 eb       	ldi	r31, 0xB5	; 181
    2ede:	af 2e       	mov	r10, r31
    2ee0:	f1 e0       	ldi	r31, 0x01	; 1
    2ee2:	bf 2e       	mov	r11, r31
    2ee4:	f0 2d       	mov	r31, r0
    2ee6:	f7 01       	movw	r30, r14
    2ee8:	81 91       	ld	r24, Z+
    2eea:	7f 01       	movw	r14, r30
    2eec:	1f 92       	push	r1
    2eee:	8f 93       	push	r24
    2ef0:	bf 92       	push	r11
    2ef2:	af 92       	push	r10
    2ef4:	df 92       	push	r13
    2ef6:	0f 93       	push	r16
    2ef8:	0e 94 14 1e 	call	0x3c28	; 0x3c28 <sprintf>
				UART_Transmit_String(&UART1,0,prnt_buffer);
    2efc:	40 2f       	mov	r20, r16
    2efe:	5d 2d       	mov	r21, r13
    2f00:	60 e0       	ldi	r22, 0x00	; 0
    2f02:	88 ec       	ldi	r24, 0xC8	; 200
    2f04:	90 e0       	ldi	r25, 0x00	; 0
    2f06:	0e 94 4e 1d 	call	0x3a9c	; 0x3a9c <UART_Transmit_String>
        error_flag=Receive_Response(5,valsout);
		Output_Set(&PB,(SD_CS));  // Set nCS = 1
		Output_Set(&PB,(LED1));  //GREENLED=1;
	    Copy_String_to_Buffer(SD_Card_Resp,0,prnt_buffer);
	    UART_Transmit_String(&UART1,0,prnt_buffer);
        for(i=0;i<5;i++)
    2f0a:	0f 90       	pop	r0
    2f0c:	0f 90       	pop	r0
    2f0e:	0f 90       	pop	r0
    2f10:	0f 90       	pop	r0
    2f12:	0f 90       	pop	r0
    2f14:	0f 90       	pop	r0
    2f16:	e8 14       	cp	r14, r8
    2f18:	f9 04       	cpc	r15, r9
    2f1a:	29 f7       	brne	.-54     	; 0x2ee6 <SD_Card_Init+0x1f0>
		{   
		        sprintf(prnt_buffer, "%2.2X ",valsout[i]);
				UART_Transmit_String(&UART1,0,prnt_buffer);
		}
        UART_Transmit(&UART1,CR);
    2f1c:	6d e0       	ldi	r22, 0x0D	; 13
    2f1e:	88 ec       	ldi	r24, 0xC8	; 200
    2f20:	90 e0       	ldi	r25, 0x00	; 0
    2f22:	0e 94 1e 1d 	call	0x3a3c	; 0x3a3c <UART_Transmit>
        UART_Transmit(&UART1,LF);
    2f26:	6a e0       	ldi	r22, 0x0A	; 10
    2f28:	88 ec       	ldi	r24, 0xC8	; 200
    2f2a:	90 e0       	ldi	r25, 0x00	; 0
    2f2c:	0e 94 1e 1d 	call	0x3a3c	; 0x3a3c <UART_Transmit>
		if(valsout[4]!=0xAA)
    2f30:	8d 81       	ldd	r24, Y+5	; 0x05
    2f32:	8a 3a       	cpi	r24, 0xAA	; 170
    2f34:	09 f0       	breq	.+2      	; 0x2f38 <SD_Card_Init+0x242>
    2f36:	90 c2       	rjmp	.+1312   	; 0x3458 <SD_Card_Init+0x762>
    2f38:	10 c0       	rjmp	.+32     	; 0x2f5a <SD_Card_Init+0x264>
		   error_flag=response_error;
		}
     }
     else
     {
        Output_Set(&PB,(SD_CS));  // Set nCS = 1
    2f3a:	60 e1       	ldi	r22, 0x10	; 16
    2f3c:	83 e2       	ldi	r24, 0x23	; 35
    2f3e:	90 e0       	ldi	r25, 0x00	; 0
    2f40:	0e 94 cd 09 	call	0x139a	; 0x139a <Output_Set>
        Output_Set(&PB,(LED1));  //GREENLED=1;
    2f44:	68 e0       	ldi	r22, 0x08	; 8
    2f46:	83 e2       	ldi	r24, 0x23	; 35
    2f48:	90 e0       	ldi	r25, 0x00	; 0
    2f4a:	0e 94 cd 09 	call	0x139a	; 0x139a <Output_Set>
	    Output_Clear(&PA,(LED3)); //REDLED=0;  indicates error has occured.
    2f4e:	60 e8       	ldi	r22, 0x80	; 128
    2f50:	80 e2       	ldi	r24, 0x20	; 32
    2f52:	90 e0       	ldi	r25, 0x00	; 0
    2f54:	0e 94 d2 09 	call	0x13a4	; 0x13a4 <Output_Clear>
    2f58:	02 c0       	rjmp	.+4      	; 0x2f5e <SD_Card_Init+0x268>
     }
	 if(error_flag!=no_errors)
    2f5a:	11 23       	and	r17, r17
    2f5c:	19 f1       	breq	.+70     	; 0x2fa4 <SD_Card_Init+0x2ae>
	 {
        if(error_flag==illegal_cmnd)
    2f5e:	12 38       	cpi	r17, 0x82	; 130
    2f60:	09 f0       	breq	.+2      	; 0x2f64 <SD_Card_Init+0x26e>
    2f62:	9c c0       	rjmp	.+312    	; 0x309c <SD_Card_Init+0x3a6>
        {
           error_status=no_errors;
		   SD_Card_Type=Standard_Capacity;
    2f64:	89 e0       	ldi	r24, 0x09	; 9
    2f66:	80 93 f0 01 	sts	0x01F0, r24	; 0x8001f0 <__data_end>
		   Copy_String_to_Buffer(SD_Card_V1,0,prnt_buffer);
    2f6a:	40 2f       	mov	r20, r16
    2f6c:	5d 2d       	mov	r21, r13
    2f6e:	60 e0       	ldi	r22, 0x00	; 0
    2f70:	80 ef       	ldi	r24, 0xF0	; 240
    2f72:	91 e1       	ldi	r25, 0x11	; 17
    2f74:	0e 94 2e 1d 	call	0x3a5c	; 0x3a5c <Copy_String_to_Buffer>
		   UART_Transmit_String(&UART1,0,prnt_buffer);
    2f78:	40 2f       	mov	r20, r16
    2f7a:	5d 2d       	mov	r21, r13
    2f7c:	60 e0       	ldi	r22, 0x00	; 0
    2f7e:	88 ec       	ldi	r24, 0xC8	; 200
    2f80:	90 e0       	ldi	r25, 0x00	; 0
    2f82:	0e 94 4e 1d 	call	0x3a9c	; 0x3a9c <UART_Transmit_String>
		   Copy_String_to_Buffer(SD_Card_SC,0,prnt_buffer);
    2f86:	40 2f       	mov	r20, r16
    2f88:	5d 2d       	mov	r21, r13
    2f8a:	60 e0       	ldi	r22, 0x00	; 0
    2f8c:	8f ea       	ldi	r24, 0xAF	; 175
    2f8e:	91 e1       	ldi	r25, 0x11	; 17
    2f90:	0e 94 2e 1d 	call	0x3a5c	; 0x3a5c <Copy_String_to_Buffer>
		   UART_Transmit_String(&UART1,0,prnt_buffer);
    2f94:	40 2f       	mov	r20, r16
    2f96:	5d 2d       	mov	r21, r13
    2f98:	60 e0       	ldi	r22, 0x00	; 0
    2f9a:	88 ec       	ldi	r24, 0xC8	; 200
    2f9c:	90 e0       	ldi	r25, 0x00	; 0
    2f9e:	0e 94 4e 1d 	call	0x3a9c	; 0x3a9c <UART_Transmit_String>
    2fa2:	30 c2       	rjmp	.+1120   	; 0x3404 <SD_Card_Init+0x70e>
		   error_status=error_flag;
		}
	 }
	 else
	 {
		SD_Card_Type=Ver2;
    2fa4:	82 e0       	ldi	r24, 0x02	; 2
    2fa6:	80 93 f0 01 	sts	0x01F0, r24	; 0x8001f0 <__data_end>
		Copy_String_to_Buffer(SD_Card_V2,0,prnt_buffer);
    2faa:	40 2f       	mov	r20, r16
    2fac:	5d 2d       	mov	r21, r13
    2fae:	60 e0       	ldi	r22, 0x00	; 0
    2fb0:	82 ed       	ldi	r24, 0xD2	; 210
    2fb2:	91 e1       	ldi	r25, 0x11	; 17
    2fb4:	0e 94 2e 1d 	call	0x3a5c	; 0x3a5c <Copy_String_to_Buffer>
		UART_Transmit_String(&UART1,0,prnt_buffer);
    2fb8:	40 2f       	mov	r20, r16
    2fba:	5d 2d       	mov	r21, r13
    2fbc:	60 e0       	ldi	r22, 0x00	; 0
    2fbe:	88 ec       	ldi	r24, 0xC8	; 200
    2fc0:	90 e0       	ldi	r25, 0x00	; 0
    2fc2:	0e 94 4e 1d 	call	0x3a9c	; 0x3a9c <UART_Transmit_String>
    2fc6:	1e c2       	rjmp	.+1084   	; 0x3404 <SD_Card_Init+0x70e>
     UART_Transmit_String(&UART1,0,prnt_buffer);
     Output_Clear(&PB,(SD_CS));  // Clear nCS = 0
     error_flag=Send_Command(CMD58,0);
	 if(error_flag==no_errors)
     {
        error_flag=Receive_Response(5,valsout);
    2fc8:	be 01       	movw	r22, r28
    2fca:	6f 5f       	subi	r22, 0xFF	; 255
    2fcc:	7f 4f       	sbci	r23, 0xFF	; 255
    2fce:	85 e0       	ldi	r24, 0x05	; 5
    2fd0:	0e 94 d9 15 	call	0x2bb2	; 0x2bb2 <Receive_Response>
    2fd4:	18 2f       	mov	r17, r24
		Output_Set(&PB,(SD_CS));  // Set nCS = 1
    2fd6:	60 e1       	ldi	r22, 0x10	; 16
    2fd8:	83 e2       	ldi	r24, 0x23	; 35
    2fda:	90 e0       	ldi	r25, 0x00	; 0
    2fdc:	0e 94 cd 09 	call	0x139a	; 0x139a <Output_Set>
		Output_Set(&PB,(LED1));  //GREENLED=1;
    2fe0:	68 e0       	ldi	r22, 0x08	; 8
    2fe2:	83 e2       	ldi	r24, 0x23	; 35
    2fe4:	90 e0       	ldi	r25, 0x00	; 0
    2fe6:	0e 94 cd 09 	call	0x139a	; 0x139a <Output_Set>
	    Copy_String_to_Buffer(SD_Card_Resp,0,prnt_buffer);
    2fea:	40 2f       	mov	r20, r16
    2fec:	5d 2d       	mov	r21, r13
    2fee:	60 e0       	ldi	r22, 0x00	; 0
    2ff0:	8e e0       	ldi	r24, 0x0E	; 14
    2ff2:	92 e1       	ldi	r25, 0x12	; 18
    2ff4:	0e 94 2e 1d 	call	0x3a5c	; 0x3a5c <Copy_String_to_Buffer>
	    UART_Transmit_String(&UART1,0,prnt_buffer);
    2ff8:	40 2f       	mov	r20, r16
    2ffa:	5d 2d       	mov	r21, r13
    2ffc:	60 e0       	ldi	r22, 0x00	; 0
    2ffe:	88 ec       	ldi	r24, 0xC8	; 200
    3000:	90 e0       	ldi	r25, 0x00	; 0
    3002:	0e 94 4e 1d 	call	0x3a9c	; 0x3a9c <UART_Transmit_String>
    3006:	ce 01       	movw	r24, r28
    3008:	01 96       	adiw	r24, 0x01	; 1
    300a:	7c 01       	movw	r14, r24
    300c:	4e 01       	movw	r8, r28
    300e:	96 e0       	ldi	r25, 0x06	; 6
    3010:	89 0e       	add	r8, r25
    3012:	91 1c       	adc	r9, r1
        for(i=0;i<5;i++)
		{   
		     sprintf(prnt_buffer, "%2.2X ",valsout[i]);
    3014:	0f 2e       	mov	r0, r31
    3016:	f5 eb       	ldi	r31, 0xB5	; 181
    3018:	af 2e       	mov	r10, r31
    301a:	f1 e0       	ldi	r31, 0x01	; 1
    301c:	bf 2e       	mov	r11, r31
    301e:	f0 2d       	mov	r31, r0
    3020:	f7 01       	movw	r30, r14
    3022:	81 91       	ld	r24, Z+
    3024:	7f 01       	movw	r14, r30
    3026:	1f 92       	push	r1
    3028:	8f 93       	push	r24
    302a:	bf 92       	push	r11
    302c:	af 92       	push	r10
    302e:	df 92       	push	r13
    3030:	0f 93       	push	r16
    3032:	0e 94 14 1e 	call	0x3c28	; 0x3c28 <sprintf>
			 UART_Transmit_String(&UART1,0,prnt_buffer);
    3036:	40 2f       	mov	r20, r16
    3038:	5d 2d       	mov	r21, r13
    303a:	60 e0       	ldi	r22, 0x00	; 0
    303c:	88 ec       	ldi	r24, 0xC8	; 200
    303e:	90 e0       	ldi	r25, 0x00	; 0
    3040:	0e 94 4e 1d 	call	0x3a9c	; 0x3a9c <UART_Transmit_String>
        error_flag=Receive_Response(5,valsout);
		Output_Set(&PB,(SD_CS));  // Set nCS = 1
		Output_Set(&PB,(LED1));  //GREENLED=1;
	    Copy_String_to_Buffer(SD_Card_Resp,0,prnt_buffer);
	    UART_Transmit_String(&UART1,0,prnt_buffer);
        for(i=0;i<5;i++)
    3044:	0f 90       	pop	r0
    3046:	0f 90       	pop	r0
    3048:	0f 90       	pop	r0
    304a:	0f 90       	pop	r0
    304c:	0f 90       	pop	r0
    304e:	0f 90       	pop	r0
    3050:	e8 14       	cp	r14, r8
    3052:	f9 04       	cpc	r15, r9
    3054:	29 f7       	brne	.-54     	; 0x3020 <SD_Card_Init+0x32a>
		{   
		     sprintf(prnt_buffer, "%2.2X ",valsout[i]);
			 UART_Transmit_String(&UART1,0,prnt_buffer);
		}
        UART_Transmit(&UART1,CR);
    3056:	6d e0       	ldi	r22, 0x0D	; 13
    3058:	88 ec       	ldi	r24, 0xC8	; 200
    305a:	90 e0       	ldi	r25, 0x00	; 0
    305c:	0e 94 1e 1d 	call	0x3a3c	; 0x3a3c <UART_Transmit>
        UART_Transmit(&UART1,LF);
    3060:	6a e0       	ldi	r22, 0x0A	; 10
    3062:	88 ec       	ldi	r24, 0xC8	; 200
    3064:	90 e0       	ldi	r25, 0x00	; 0
    3066:	0e 94 1e 1d 	call	0x3a3c	; 0x3a3c <UART_Transmit>
		if((valsout[2]&0xFC)!=0xFC)
    306a:	8b 81       	ldd	r24, Y+3	; 0x03
    306c:	8c 7f       	andi	r24, 0xFC	; 252
    306e:	8c 3f       	cpi	r24, 0xFC	; 252
    3070:	09 f0       	breq	.+2      	; 0x3074 <SD_Card_Init+0x37e>
    3072:	f9 c1       	rjmp	.+1010   	; 0x3466 <SD_Card_Init+0x770>
    3074:	10 c0       	rjmp	.+32     	; 0x3096 <SD_Card_Init+0x3a0>
		   error_flag=voltage_error;
		}
     }
     else
     {
        Output_Set(&PB,(SD_CS));  // Set nCS = 1
    3076:	60 e1       	ldi	r22, 0x10	; 16
    3078:	83 e2       	ldi	r24, 0x23	; 35
    307a:	90 e0       	ldi	r25, 0x00	; 0
    307c:	0e 94 cd 09 	call	0x139a	; 0x139a <Output_Set>
        Output_Set(&PB,(LED1));  //GREENLED=1;
    3080:	68 e0       	ldi	r22, 0x08	; 8
    3082:	83 e2       	ldi	r24, 0x23	; 35
    3084:	90 e0       	ldi	r25, 0x00	; 0
    3086:	0e 94 cd 09 	call	0x139a	; 0x139a <Output_Set>
	    Output_Clear(&PA,(LED3));  //REDLED=0;  indicates error has occured.
    308a:	60 e8       	ldi	r22, 0x80	; 128
    308c:	80 e2       	ldi	r24, 0x20	; 32
    308e:	90 e0       	ldi	r25, 0x00	; 0
    3090:	0e 94 d2 09 	call	0x13a4	; 0x13a4 <Output_Clear>
    3094:	e9 c1       	rjmp	.+978    	; 0x3468 <SD_Card_Init+0x772>
     }
	 if(error_flag!=no_errors)
    3096:	11 23       	and	r17, r17
    3098:	19 f0       	breq	.+6      	; 0x30a0 <SD_Card_Init+0x3aa>
    309a:	e6 c1       	rjmp	.+972    	; 0x3468 <SD_Card_Init+0x772>
	 {		
	    error_status=error_flag;
	 }
   }
   if(error_status==no_errors)
    309c:	11 11       	cpse	r17, r1
    309e:	e4 c1       	rjmp	.+968    	; 0x3468 <SD_Card_Init+0x772>
   {
     if(SD_Card_Type==Ver2)
    30a0:	80 91 f0 01 	lds	r24, 0x01F0	; 0x8001f0 <__data_end>
    30a4:	82 30       	cpi	r24, 0x02	; 2
    30a6:	21 f0       	breq	.+8      	; 0x30b0 <SD_Card_Init+0x3ba>
	 {
	    argument=0x40000000;
	 }
	 else
	 {
	    argument=0;
    30a8:	81 2c       	mov	r8, r1
    30aa:	91 2c       	mov	r9, r1
    30ac:	54 01       	movw	r10, r8
    30ae:	05 c0       	rjmp	.+10     	; 0x30ba <SD_Card_Init+0x3c4>
   }
   if(error_status==no_errors)
   {
     if(SD_Card_Type==Ver2)
	 {
	    argument=0x40000000;
    30b0:	81 2c       	mov	r8, r1
    30b2:	91 2c       	mov	r9, r1
    30b4:	54 01       	movw	r10, r8
    30b6:	68 94       	set
    30b8:	b6 f8       	bld	r11, 6
	 else
	 {
	    argument=0;
	 }
	 timeout=0;
     Output_Clear(&PB,(LED1));  //GREENLED=0;
    30ba:	68 e0       	ldi	r22, 0x08	; 8
    30bc:	83 e2       	ldi	r24, 0x23	; 35
    30be:	90 e0       	ldi	r25, 0x00	; 0
    30c0:	0e 94 d2 09 	call	0x13a4	; 0x13a4 <Output_Clear>
     Copy_String_to_Buffer(SD_Card_ACMD41,0,prnt_buffer);
    30c4:	40 2f       	mov	r20, r16
    30c6:	5d 2d       	mov	r21, r13
    30c8:	60 e0       	ldi	r22, 0x00	; 0
    30ca:	8a e1       	ldi	r24, 0x1A	; 26
    30cc:	92 e1       	ldi	r25, 0x12	; 18
    30ce:	0e 94 2e 1d 	call	0x3a5c	; 0x3a5c <Copy_String_to_Buffer>
     UART_Transmit_String(&UART1,0,prnt_buffer);
    30d2:	40 2f       	mov	r20, r16
    30d4:	5d 2d       	mov	r21, r13
    30d6:	60 e0       	ldi	r22, 0x00	; 0
    30d8:	88 ec       	ldi	r24, 0xC8	; 200
    30da:	90 e0       	ldi	r25, 0x00	; 0
    30dc:	0e 94 4e 1d 	call	0x3a9c	; 0x3a9c <UART_Transmit_String>
     Output_Clear(&PB,(SD_CS));  // Clear nCS = 0
    30e0:	60 e1       	ldi	r22, 0x10	; 16
    30e2:	83 e2       	ldi	r24, 0x23	; 35
    30e4:	90 e0       	ldi	r25, 0x00	; 0
    30e6:	0e 94 d2 09 	call	0x13a4	; 0x13a4 <Output_Clear>
	 }
	 else
	 {
	    argument=0;
	 }
	 timeout=0;
    30ea:	e1 2c       	mov	r14, r1
    30ec:	f1 2c       	mov	r15, r1
     Copy_String_to_Buffer(SD_Card_ACMD41,0,prnt_buffer);
     UART_Transmit_String(&UART1,0,prnt_buffer);
     Output_Clear(&PB,(SD_CS));  // Clear nCS = 0
	 do
	 {
	    error_flag=Send_Command(CMD55,0);
    30ee:	40 e0       	ldi	r20, 0x00	; 0
    30f0:	50 e0       	ldi	r21, 0x00	; 0
    30f2:	ba 01       	movw	r22, r20
    30f4:	87 e3       	ldi	r24, 0x37	; 55
    30f6:	0e 94 97 15 	call	0x2b2e	; 0x2b2e <Send_Command>
    30fa:	18 2f       	mov	r17, r24
		if(error_flag==no_errors)  error_flag=Receive_Response(1,valsout);
    30fc:	81 11       	cpse	r24, r1
    30fe:	a5 c1       	rjmp	.+842    	; 0x344a <SD_Card_Init+0x754>
    3100:	be 01       	movw	r22, r28
    3102:	6f 5f       	subi	r22, 0xFF	; 255
    3104:	7f 4f       	sbci	r23, 0xFF	; 255
    3106:	81 e0       	ldi	r24, 0x01	; 1
    3108:	0e 94 d9 15 	call	0x2bb2	; 0x2bb2 <Receive_Response>
    310c:	18 2f       	mov	r17, r24
	    if((valsout[0]==0x01)||(valsout[0]==0x00))
    310e:	89 81       	ldd	r24, Y+1	; 0x01
    3110:	82 30       	cpi	r24, 0x02	; 2
    3112:	30 f4       	brcc	.+12     	; 0x3120 <SD_Card_Init+0x42a>
		   error_flag=Send_Command(ACMD41,argument);
    3114:	b5 01       	movw	r22, r10
    3116:	a4 01       	movw	r20, r8
    3118:	89 e2       	ldi	r24, 0x29	; 41
    311a:	0e 94 97 15 	call	0x2b2e	; 0x2b2e <Send_Command>
    311e:	18 2f       	mov	r17, r24
	    if(error_flag==no_errors) Receive_Response(1,valsout);
    3120:	11 11       	cpse	r17, r1
    3122:	06 c0       	rjmp	.+12     	; 0x3130 <SD_Card_Init+0x43a>
    3124:	be 01       	movw	r22, r28
    3126:	6f 5f       	subi	r22, 0xFF	; 255
    3128:	7f 4f       	sbci	r23, 0xFF	; 255
    312a:	81 e0       	ldi	r24, 0x01	; 1
    312c:	0e 94 d9 15 	call	0x2bb2	; 0x2bb2 <Receive_Response>
		timeout++;
    3130:	ff ef       	ldi	r31, 0xFF	; 255
    3132:	ef 1a       	sub	r14, r31
    3134:	ff 0a       	sbc	r15, r31
		if(timeout==0) error_flag=timeout_error;
    3136:	09 f4       	brne	.+2      	; 0x313a <SD_Card_Init+0x444>
    3138:	91 c1       	rjmp	.+802    	; 0x345c <SD_Card_Init+0x766>
	   }while(((valsout[0]&0x01)==0x01)&&(error_flag==no_errors));
    313a:	89 81       	ldd	r24, Y+1	; 0x01
    313c:	80 ff       	sbrs	r24, 0
    313e:	03 c0       	rjmp	.+6      	; 0x3146 <SD_Card_Init+0x450>
    3140:	11 23       	and	r17, r17
    3142:	a9 f2       	breq	.-86     	; 0x30ee <SD_Card_Init+0x3f8>
    3144:	34 c0       	rjmp	.+104    	; 0x31ae <SD_Card_Init+0x4b8>
	 if(error_flag==no_errors)
    3146:	11 11       	cpse	r17, r1
    3148:	32 c0       	rjmp	.+100    	; 0x31ae <SD_Card_Init+0x4b8>
     {
		Output_Set(&PB,(SD_CS));  // Set nCS = 1
    314a:	60 e1       	ldi	r22, 0x10	; 16
    314c:	83 e2       	ldi	r24, 0x23	; 35
    314e:	90 e0       	ldi	r25, 0x00	; 0
    3150:	0e 94 cd 09 	call	0x139a	; 0x139a <Output_Set>
        Output_Set(&PB,(LED1));  //GREENLED=1;
    3154:	68 e0       	ldi	r22, 0x08	; 8
    3156:	83 e2       	ldi	r24, 0x23	; 35
    3158:	90 e0       	ldi	r25, 0x00	; 0
    315a:	0e 94 cd 09 	call	0x139a	; 0x139a <Output_Set>
	    Copy_String_to_Buffer(SD_Card_Resp,0,prnt_buffer);
    315e:	40 2f       	mov	r20, r16
    3160:	5d 2d       	mov	r21, r13
    3162:	60 e0       	ldi	r22, 0x00	; 0
    3164:	8e e0       	ldi	r24, 0x0E	; 14
    3166:	92 e1       	ldi	r25, 0x12	; 18
    3168:	0e 94 2e 1d 	call	0x3a5c	; 0x3a5c <Copy_String_to_Buffer>
	    UART_Transmit_String(&UART1,0,prnt_buffer);
    316c:	40 2f       	mov	r20, r16
    316e:	5d 2d       	mov	r21, r13
    3170:	60 e0       	ldi	r22, 0x00	; 0
    3172:	88 ec       	ldi	r24, 0xC8	; 200
    3174:	90 e0       	ldi	r25, 0x00	; 0
    3176:	0e 94 4e 1d 	call	0x3a9c	; 0x3a9c <UART_Transmit_String>
		sprintf(prnt_buffer, "%2.2X \n\r",valsout[0]);
    317a:	89 81       	ldd	r24, Y+1	; 0x01
    317c:	1f 92       	push	r1
    317e:	8f 93       	push	r24
    3180:	80 ed       	ldi	r24, 0xD0	; 208
    3182:	91 e0       	ldi	r25, 0x01	; 1
    3184:	9f 93       	push	r25
    3186:	8f 93       	push	r24
    3188:	df 92       	push	r13
    318a:	0f 93       	push	r16
    318c:	0e 94 14 1e 	call	0x3c28	; 0x3c28 <sprintf>
		UART_Transmit_String(&UART1,0,prnt_buffer);
    3190:	40 2f       	mov	r20, r16
    3192:	5d 2d       	mov	r21, r13
    3194:	60 e0       	ldi	r22, 0x00	; 0
    3196:	88 ec       	ldi	r24, 0xC8	; 200
    3198:	90 e0       	ldi	r25, 0x00	; 0
    319a:	0e 94 4e 1d 	call	0x3a9c	; 0x3a9c <UART_Transmit_String>
    319e:	0f 90       	pop	r0
    31a0:	0f 90       	pop	r0
    31a2:	0f 90       	pop	r0
    31a4:	0f 90       	pop	r0
    31a6:	0f 90       	pop	r0
    31a8:	0f 90       	pop	r0
    31aa:	12 c0       	rjmp	.+36     	; 0x31d0 <SD_Card_Init+0x4da>
		if(error_flag==no_errors)  error_flag=Receive_Response(1,valsout);
	    if((valsout[0]==0x01)||(valsout[0]==0x00))
		   error_flag=Send_Command(ACMD41,argument);
	    if(error_flag==no_errors) Receive_Response(1,valsout);
		timeout++;
		if(timeout==0) error_flag=timeout_error;
    31ac:	11 e8       	ldi	r17, 0x81	; 129
		sprintf(prnt_buffer, "%2.2X \n\r",valsout[0]);
		UART_Transmit_String(&UART1,0,prnt_buffer);
     }
     else
     {
        Output_Set(&PB,(SD_CS));  // Set nCS = 1
    31ae:	60 e1       	ldi	r22, 0x10	; 16
    31b0:	83 e2       	ldi	r24, 0x23	; 35
    31b2:	90 e0       	ldi	r25, 0x00	; 0
    31b4:	0e 94 cd 09 	call	0x139a	; 0x139a <Output_Set>
        Output_Set(&PB,(LED1));  //GREENLED=1;
    31b8:	68 e0       	ldi	r22, 0x08	; 8
    31ba:	83 e2       	ldi	r24, 0x23	; 35
    31bc:	90 e0       	ldi	r25, 0x00	; 0
    31be:	0e 94 cd 09 	call	0x139a	; 0x139a <Output_Set>
	    Output_Clear(&PA,(LED3));  //REDLED=0;  indicates error has occured.
    31c2:	60 e8       	ldi	r22, 0x80	; 128
    31c4:	80 e2       	ldi	r24, 0x20	; 32
    31c6:	90 e0       	ldi	r25, 0x00	; 0
    31c8:	0e 94 d2 09 	call	0x13a4	; 0x13a4 <Output_Clear>
	 if(error_flag!=no_errors)
	 {		
	    error_status=error_flag;
	 }
   }
   if((error_status==no_errors)&&(SD_Card_Type==Ver2))
    31cc:	11 11       	cpse	r17, r1
    31ce:	4c c1       	rjmp	.+664    	; 0x3468 <SD_Card_Init+0x772>
    31d0:	80 91 f0 01 	lds	r24, 0x01F0	; 0x8001f0 <__data_end>
    31d4:	82 30       	cpi	r24, 0x02	; 2
    31d6:	09 f0       	breq	.+2      	; 0x31da <SD_Card_Init+0x4e4>
    31d8:	13 c1       	rjmp	.+550    	; 0x3400 <SD_Card_Init+0x70a>
   {
     Output_Clear(&PB,(LED1));  //GREENLED=0;
    31da:	68 e0       	ldi	r22, 0x08	; 8
    31dc:	83 e2       	ldi	r24, 0x23	; 35
    31de:	90 e0       	ldi	r25, 0x00	; 0
    31e0:	0e 94 d2 09 	call	0x13a4	; 0x13a4 <Output_Clear>
     Copy_String_to_Buffer(SD_Card_CMD58,0,prnt_buffer);
    31e4:	40 2f       	mov	r20, r16
    31e6:	5d 2d       	mov	r21, r13
    31e8:	60 e0       	ldi	r22, 0x00	; 0
    31ea:	8b e2       	ldi	r24, 0x2B	; 43
    31ec:	92 e1       	ldi	r25, 0x12	; 18
    31ee:	0e 94 2e 1d 	call	0x3a5c	; 0x3a5c <Copy_String_to_Buffer>
     UART_Transmit_String(&UART1,0,prnt_buffer);
    31f2:	40 2f       	mov	r20, r16
    31f4:	5d 2d       	mov	r21, r13
    31f6:	60 e0       	ldi	r22, 0x00	; 0
    31f8:	88 ec       	ldi	r24, 0xC8	; 200
    31fa:	90 e0       	ldi	r25, 0x00	; 0
    31fc:	0e 94 4e 1d 	call	0x3a9c	; 0x3a9c <UART_Transmit_String>
     Output_Clear(&PB,(SD_CS));  // Clear nCS = 0
    3200:	60 e1       	ldi	r22, 0x10	; 16
    3202:	83 e2       	ldi	r24, 0x23	; 35
    3204:	90 e0       	ldi	r25, 0x00	; 0
    3206:	0e 94 d2 09 	call	0x13a4	; 0x13a4 <Output_Clear>
     error_flag=Send_Command(CMD58,0);
    320a:	40 e0       	ldi	r20, 0x00	; 0
    320c:	50 e0       	ldi	r21, 0x00	; 0
    320e:	ba 01       	movw	r22, r20
    3210:	8a e3       	ldi	r24, 0x3A	; 58
    3212:	0e 94 97 15 	call	0x2b2e	; 0x2b2e <Send_Command>
    3216:	18 2f       	mov	r17, r24
	 if(error_flag==no_errors)
    3218:	81 11       	cpse	r24, r1
    321a:	e2 c0       	rjmp	.+452    	; 0x33e0 <SD_Card_Init+0x6ea>
     {
        error_flag=Receive_Response(5,valsout);
    321c:	be 01       	movw	r22, r28
    321e:	6f 5f       	subi	r22, 0xFF	; 255
    3220:	7f 4f       	sbci	r23, 0xFF	; 255
    3222:	85 e0       	ldi	r24, 0x05	; 5
    3224:	0e 94 d9 15 	call	0x2bb2	; 0x2bb2 <Receive_Response>
    3228:	18 2f       	mov	r17, r24
		Output_Set(&PB,(SD_CS));  // Set nCS = 1
    322a:	60 e1       	ldi	r22, 0x10	; 16
    322c:	83 e2       	ldi	r24, 0x23	; 35
    322e:	90 e0       	ldi	r25, 0x00	; 0
    3230:	0e 94 cd 09 	call	0x139a	; 0x139a <Output_Set>
        Output_Set(&PB,(LED1));  //GREENLED=1;
    3234:	68 e0       	ldi	r22, 0x08	; 8
    3236:	83 e2       	ldi	r24, 0x23	; 35
    3238:	90 e0       	ldi	r25, 0x00	; 0
    323a:	0e 94 cd 09 	call	0x139a	; 0x139a <Output_Set>
	    Copy_String_to_Buffer(SD_Card_Resp,0,prnt_buffer);
    323e:	40 2f       	mov	r20, r16
    3240:	5d 2d       	mov	r21, r13
    3242:	60 e0       	ldi	r22, 0x00	; 0
    3244:	8e e0       	ldi	r24, 0x0E	; 14
    3246:	92 e1       	ldi	r25, 0x12	; 18
    3248:	0e 94 2e 1d 	call	0x3a5c	; 0x3a5c <Copy_String_to_Buffer>
	    UART_Transmit_String(&UART1,0,prnt_buffer);
    324c:	40 2f       	mov	r20, r16
    324e:	5d 2d       	mov	r21, r13
    3250:	60 e0       	ldi	r22, 0x00	; 0
    3252:	88 ec       	ldi	r24, 0xC8	; 200
    3254:	90 e0       	ldi	r25, 0x00	; 0
    3256:	0e 94 4e 1d 	call	0x3a9c	; 0x3a9c <UART_Transmit_String>
    325a:	ce 01       	movw	r24, r28
    325c:	01 96       	adiw	r24, 0x01	; 1
    325e:	7c 01       	movw	r14, r24
    3260:	4e 01       	movw	r8, r28
    3262:	96 e0       	ldi	r25, 0x06	; 6
    3264:	89 0e       	add	r8, r25
    3266:	91 1c       	adc	r9, r1
        for(i=0;i<5;i++)
		{   
           sprintf(prnt_buffer, "%2.2X ",valsout[i]);
    3268:	0f 2e       	mov	r0, r31
    326a:	f5 eb       	ldi	r31, 0xB5	; 181
    326c:	af 2e       	mov	r10, r31
    326e:	f1 e0       	ldi	r31, 0x01	; 1
    3270:	bf 2e       	mov	r11, r31
    3272:	f0 2d       	mov	r31, r0
    3274:	f7 01       	movw	r30, r14
    3276:	81 91       	ld	r24, Z+
    3278:	7f 01       	movw	r14, r30
    327a:	1f 92       	push	r1
    327c:	8f 93       	push	r24
    327e:	bf 92       	push	r11
    3280:	af 92       	push	r10
    3282:	df 92       	push	r13
    3284:	0f 93       	push	r16
    3286:	0e 94 14 1e 	call	0x3c28	; 0x3c28 <sprintf>
		   UART_Transmit_String(&UART1,0,prnt_buffer);
    328a:	40 2f       	mov	r20, r16
    328c:	5d 2d       	mov	r21, r13
    328e:	60 e0       	ldi	r22, 0x00	; 0
    3290:	88 ec       	ldi	r24, 0xC8	; 200
    3292:	90 e0       	ldi	r25, 0x00	; 0
    3294:	0e 94 4e 1d 	call	0x3a9c	; 0x3a9c <UART_Transmit_String>
        error_flag=Receive_Response(5,valsout);
		Output_Set(&PB,(SD_CS));  // Set nCS = 1
        Output_Set(&PB,(LED1));  //GREENLED=1;
	    Copy_String_to_Buffer(SD_Card_Resp,0,prnt_buffer);
	    UART_Transmit_String(&UART1,0,prnt_buffer);
        for(i=0;i<5;i++)
    3298:	0f 90       	pop	r0
    329a:	0f 90       	pop	r0
    329c:	0f 90       	pop	r0
    329e:	0f 90       	pop	r0
    32a0:	0f 90       	pop	r0
    32a2:	0f 90       	pop	r0
    32a4:	e8 14       	cp	r14, r8
    32a6:	f9 04       	cpc	r15, r9
    32a8:	29 f7       	brne	.-54     	; 0x3274 <SD_Card_Init+0x57e>
		{   
           sprintf(prnt_buffer, "%2.2X ",valsout[i]);
		   UART_Transmit_String(&UART1,0,prnt_buffer);
		}
        UART_Transmit(&UART1,CR);
    32aa:	6d e0       	ldi	r22, 0x0D	; 13
    32ac:	88 ec       	ldi	r24, 0xC8	; 200
    32ae:	90 e0       	ldi	r25, 0x00	; 0
    32b0:	0e 94 1e 1d 	call	0x3a3c	; 0x3a3c <UART_Transmit>
        UART_Transmit(&UART1,LF);
    32b4:	6a e0       	ldi	r22, 0x0A	; 10
    32b6:	88 ec       	ldi	r24, 0xC8	; 200
    32b8:	90 e0       	ldi	r25, 0x00	; 0
    32ba:	0e 94 1e 1d 	call	0x3a3c	; 0x3a3c <UART_Transmit>
		if((valsout[1]&0x80)!=0x80)
    32be:	8a 81       	ldd	r24, Y+2	; 0x02
    32c0:	88 23       	and	r24, r24
    32c2:	0c f0       	brlt	.+2      	; 0x32c6 <SD_Card_Init+0x5d0>
    32c4:	c7 c0       	rjmp	.+398    	; 0x3454 <SD_Card_Init+0x75e>
		{
		   error_flag=card_inactive;
		}
		else
		{
		   if((valsout[1]&0xC0)==0xC0)
    32c6:	80 7c       	andi	r24, 0xC0	; 192
    32c8:	80 3c       	cpi	r24, 0xC0	; 192
    32ca:	89 f4       	brne	.+34     	; 0x32ee <SD_Card_Init+0x5f8>
		   {
		      SD_Card_Type=High_Capacity;
    32cc:	10 92 f0 01 	sts	0x01F0, r1	; 0x8001f0 <__data_end>
		      Copy_String_to_Buffer(SD_Card_HC,0,prnt_buffer);
    32d0:	40 2f       	mov	r20, r16
    32d2:	5d 2d       	mov	r21, r13
    32d4:	60 e0       	ldi	r22, 0x00	; 0
    32d6:	80 e9       	ldi	r24, 0x90	; 144
    32d8:	91 e1       	ldi	r25, 0x11	; 17
    32da:	0e 94 2e 1d 	call	0x3a5c	; 0x3a5c <Copy_String_to_Buffer>
		      UART_Transmit_String(&UART1,0,prnt_buffer);
    32de:	40 2f       	mov	r20, r16
    32e0:	5d 2d       	mov	r21, r13
    32e2:	60 e0       	ldi	r22, 0x00	; 0
    32e4:	88 ec       	ldi	r24, 0xC8	; 200
    32e6:	90 e0       	ldi	r25, 0x00	; 0
    32e8:	0e 94 4e 1d 	call	0x3a9c	; 0x3a9c <UART_Transmit_String>
    32ec:	bd c0       	rjmp	.+378    	; 0x3468 <SD_Card_Init+0x772>
		   }
		   else
		   {
		      SD_Card_Type=Standard_Capacity;
    32ee:	89 e0       	ldi	r24, 0x09	; 9
    32f0:	80 93 f0 01 	sts	0x01F0, r24	; 0x8001f0 <__data_end>
			  Copy_String_to_Buffer(SD_Card_SC,0,prnt_buffer);
    32f4:	40 2f       	mov	r20, r16
    32f6:	5d 2d       	mov	r21, r13
    32f8:	60 e0       	ldi	r22, 0x00	; 0
    32fa:	8f ea       	ldi	r24, 0xAF	; 175
    32fc:	91 e1       	ldi	r25, 0x11	; 17
    32fe:	0e 94 2e 1d 	call	0x3a5c	; 0x3a5c <Copy_String_to_Buffer>
			  UART_Transmit_String(&UART1,0,prnt_buffer);
    3302:	40 2f       	mov	r20, r16
    3304:	5d 2d       	mov	r21, r13
    3306:	60 e0       	ldi	r22, 0x00	; 0
    3308:	88 ec       	ldi	r24, 0xC8	; 200
    330a:	90 e0       	ldi	r25, 0x00	; 0
    330c:	0e 94 4e 1d 	call	0x3a9c	; 0x3a9c <UART_Transmit_String>
			  Output_Clear(&PB,(LED1));  //GREENLED=0;
    3310:	68 e0       	ldi	r22, 0x08	; 8
    3312:	83 e2       	ldi	r24, 0x23	; 35
    3314:	90 e0       	ldi	r25, 0x00	; 0
    3316:	0e 94 d2 09 	call	0x13a4	; 0x13a4 <Output_Clear>
              Copy_String_to_Buffer(SD_Card_CMD16,0,prnt_buffer);
    331a:	40 2f       	mov	r20, r16
    331c:	5d 2d       	mov	r21, r13
    331e:	60 e0       	ldi	r22, 0x00	; 0
    3320:	8b e3       	ldi	r24, 0x3B	; 59
    3322:	92 e1       	ldi	r25, 0x12	; 18
    3324:	0e 94 2e 1d 	call	0x3a5c	; 0x3a5c <Copy_String_to_Buffer>
              UART_Transmit_String(&UART1,0,prnt_buffer);
    3328:	40 2f       	mov	r20, r16
    332a:	5d 2d       	mov	r21, r13
    332c:	60 e0       	ldi	r22, 0x00	; 0
    332e:	88 ec       	ldi	r24, 0xC8	; 200
    3330:	90 e0       	ldi	r25, 0x00	; 0
    3332:	0e 94 4e 1d 	call	0x3a9c	; 0x3a9c <UART_Transmit_String>
              Output_Clear(&PB,(SD_CS));  // Clear nCS = 0
    3336:	60 e1       	ldi	r22, 0x10	; 16
    3338:	83 e2       	ldi	r24, 0x23	; 35
    333a:	90 e0       	ldi	r25, 0x00	; 0
    333c:	0e 94 d2 09 	call	0x13a4	; 0x13a4 <Output_Clear>
              error_flag=Send_Command(CMD16,512);
    3340:	40 e0       	ldi	r20, 0x00	; 0
    3342:	52 e0       	ldi	r21, 0x02	; 2
    3344:	60 e0       	ldi	r22, 0x00	; 0
    3346:	70 e0       	ldi	r23, 0x00	; 0
    3348:	80 e1       	ldi	r24, 0x10	; 16
    334a:	0e 94 97 15 	call	0x2b2e	; 0x2b2e <Send_Command>
    334e:	18 2f       	mov	r17, r24
	          if(error_flag==no_errors)
    3350:	81 11       	cpse	r24, r1
    3352:	8a c0       	rjmp	.+276    	; 0x3468 <SD_Card_Init+0x772>
              {
                  error_flag=Receive_Response(1,valsout);
    3354:	be 01       	movw	r22, r28
    3356:	6f 5f       	subi	r22, 0xFF	; 255
    3358:	7f 4f       	sbci	r23, 0xFF	; 255
    335a:	81 e0       	ldi	r24, 0x01	; 1
    335c:	0e 94 d9 15 	call	0x2bb2	; 0x2bb2 <Receive_Response>
    3360:	18 2f       	mov	r17, r24
		          Output_Set(&PB,(SD_CS));  // Set nCS = 1
    3362:	60 e1       	ldi	r22, 0x10	; 16
    3364:	83 e2       	ldi	r24, 0x23	; 35
    3366:	90 e0       	ldi	r25, 0x00	; 0
    3368:	0e 94 cd 09 	call	0x139a	; 0x139a <Output_Set>
                  Output_Set(&PB,(LED1));  //GREENLED=1;
    336c:	68 e0       	ldi	r22, 0x08	; 8
    336e:	83 e2       	ldi	r24, 0x23	; 35
    3370:	90 e0       	ldi	r25, 0x00	; 0
    3372:	0e 94 cd 09 	call	0x139a	; 0x139a <Output_Set>
				  Copy_String_to_Buffer(SD_Card_Resp,0,prnt_buffer);
    3376:	40 2f       	mov	r20, r16
    3378:	5d 2d       	mov	r21, r13
    337a:	60 e0       	ldi	r22, 0x00	; 0
    337c:	8e e0       	ldi	r24, 0x0E	; 14
    337e:	92 e1       	ldi	r25, 0x12	; 18
    3380:	0e 94 2e 1d 	call	0x3a5c	; 0x3a5c <Copy_String_to_Buffer>
				  UART_Transmit_String(&UART1,0,prnt_buffer);
    3384:	40 2f       	mov	r20, r16
    3386:	5d 2d       	mov	r21, r13
    3388:	60 e0       	ldi	r22, 0x00	; 0
    338a:	88 ec       	ldi	r24, 0xC8	; 200
    338c:	90 e0       	ldi	r25, 0x00	; 0
    338e:	0e 94 4e 1d 	call	0x3a9c	; 0x3a9c <UART_Transmit_String>
	              sprintf(prnt_buffer, "%2.2X \n\r",valsout[0]);
    3392:	89 81       	ldd	r24, Y+1	; 0x01
    3394:	1f 92       	push	r1
    3396:	8f 93       	push	r24
    3398:	80 ed       	ldi	r24, 0xD0	; 208
    339a:	91 e0       	ldi	r25, 0x01	; 1
    339c:	9f 93       	push	r25
    339e:	8f 93       	push	r24
    33a0:	df 92       	push	r13
    33a2:	0f 93       	push	r16
    33a4:	0e 94 14 1e 	call	0x3c28	; 0x3c28 <sprintf>
				  UART_Transmit_String(&UART1,0,prnt_buffer);
    33a8:	40 2f       	mov	r20, r16
    33aa:	5d 2d       	mov	r21, r13
    33ac:	60 e0       	ldi	r22, 0x00	; 0
    33ae:	88 ec       	ldi	r24, 0xC8	; 200
    33b0:	90 e0       	ldi	r25, 0x00	; 0
    33b2:	0e 94 4e 1d 	call	0x3a9c	; 0x3a9c <UART_Transmit_String>
                  Copy_String_to_Buffer(SD_Card_BlSz,0,prnt_buffer);
    33b6:	40 2f       	mov	r20, r16
    33b8:	5d 2d       	mov	r21, r13
    33ba:	60 e0       	ldi	r22, 0x00	; 0
    33bc:	82 e7       	ldi	r24, 0x72	; 114
    33be:	91 e1       	ldi	r25, 0x11	; 17
    33c0:	0e 94 2e 1d 	call	0x3a5c	; 0x3a5c <Copy_String_to_Buffer>
                  UART_Transmit_String(&UART1,0,prnt_buffer);
    33c4:	40 2f       	mov	r20, r16
    33c6:	5d 2d       	mov	r21, r13
    33c8:	60 e0       	ldi	r22, 0x00	; 0
    33ca:	88 ec       	ldi	r24, 0xC8	; 200
    33cc:	90 e0       	ldi	r25, 0x00	; 0
    33ce:	0e 94 4e 1d 	call	0x3a9c	; 0x3a9c <UART_Transmit_String>
    33d2:	0f 90       	pop	r0
    33d4:	0f 90       	pop	r0
    33d6:	0f 90       	pop	r0
    33d8:	0f 90       	pop	r0
    33da:	0f 90       	pop	r0
    33dc:	0f 90       	pop	r0
    33de:	44 c0       	rjmp	.+136    	; 0x3468 <SD_Card_Init+0x772>
			}
		 }
     }
     else
     {
        Output_Set(&PB,(SD_CS));  // Set nCS = 1
    33e0:	60 e1       	ldi	r22, 0x10	; 16
    33e2:	83 e2       	ldi	r24, 0x23	; 35
    33e4:	90 e0       	ldi	r25, 0x00	; 0
    33e6:	0e 94 cd 09 	call	0x139a	; 0x139a <Output_Set>
        Output_Set(&PB,(LED1));  //GREENLED=1;
    33ea:	68 e0       	ldi	r22, 0x08	; 8
    33ec:	83 e2       	ldi	r24, 0x23	; 35
    33ee:	90 e0       	ldi	r25, 0x00	; 0
    33f0:	0e 94 cd 09 	call	0x139a	; 0x139a <Output_Set>
	    Output_Clear(&PA,(LED3));  //REDLED=0; indicates error has occured.
    33f4:	60 e8       	ldi	r22, 0x80	; 128
    33f6:	80 e2       	ldi	r24, 0x20	; 32
    33f8:	90 e0       	ldi	r25, 0x00	; 0
    33fa:	0e 94 d2 09 	call	0x13a4	; 0x13a4 <Output_Clear>
    33fe:	34 c0       	rjmp	.+104    	; 0x3468 <SD_Card_Init+0x772>
    3400:	10 e0       	ldi	r17, 0x00	; 0
    3402:	32 c0       	rjmp	.+100    	; 0x3468 <SD_Card_Init+0x772>
		UART_Transmit_String(&UART1,0,prnt_buffer);
	 }
   }
   if(error_status==no_errors)
   {
     Output_Clear(&PB,(LED1));  //GREENLED=0;
    3404:	68 e0       	ldi	r22, 0x08	; 8
    3406:	83 e2       	ldi	r24, 0x23	; 35
    3408:	90 e0       	ldi	r25, 0x00	; 0
    340a:	0e 94 d2 09 	call	0x13a4	; 0x13a4 <Output_Clear>
     Copy_String_to_Buffer(SD_Card_CMD58,0,prnt_buffer);
    340e:	40 2f       	mov	r20, r16
    3410:	5d 2d       	mov	r21, r13
    3412:	60 e0       	ldi	r22, 0x00	; 0
    3414:	8b e2       	ldi	r24, 0x2B	; 43
    3416:	92 e1       	ldi	r25, 0x12	; 18
    3418:	0e 94 2e 1d 	call	0x3a5c	; 0x3a5c <Copy_String_to_Buffer>
     UART_Transmit_String(&UART1,0,prnt_buffer);
    341c:	40 2f       	mov	r20, r16
    341e:	5d 2d       	mov	r21, r13
    3420:	60 e0       	ldi	r22, 0x00	; 0
    3422:	88 ec       	ldi	r24, 0xC8	; 200
    3424:	90 e0       	ldi	r25, 0x00	; 0
    3426:	0e 94 4e 1d 	call	0x3a9c	; 0x3a9c <UART_Transmit_String>
     Output_Clear(&PB,(SD_CS));  // Clear nCS = 0
    342a:	60 e1       	ldi	r22, 0x10	; 16
    342c:	83 e2       	ldi	r24, 0x23	; 35
    342e:	90 e0       	ldi	r25, 0x00	; 0
    3430:	0e 94 d2 09 	call	0x13a4	; 0x13a4 <Output_Clear>
     error_flag=Send_Command(CMD58,0);
    3434:	40 e0       	ldi	r20, 0x00	; 0
    3436:	50 e0       	ldi	r21, 0x00	; 0
    3438:	ba 01       	movw	r22, r20
    343a:	8a e3       	ldi	r24, 0x3A	; 58
    343c:	0e 94 97 15 	call	0x2b2e	; 0x2b2e <Send_Command>
    3440:	18 2f       	mov	r17, r24
	 if(error_flag==no_errors)
    3442:	88 23       	and	r24, r24
    3444:	09 f4       	brne	.+2      	; 0x3448 <SD_Card_Init+0x752>
    3446:	c0 cd       	rjmp	.-1152   	; 0x2fc8 <SD_Card_Init+0x2d2>
    3448:	16 ce       	rjmp	.-980    	; 0x3076 <SD_Card_Init+0x380>
     Output_Clear(&PB,(SD_CS));  // Clear nCS = 0
	 do
	 {
	    error_flag=Send_Command(CMD55,0);
		if(error_flag==no_errors)  error_flag=Receive_Response(1,valsout);
	    if((valsout[0]==0x01)||(valsout[0]==0x00))
    344a:	89 81       	ldd	r24, Y+1	; 0x01
    344c:	82 30       	cpi	r24, 0x02	; 2
    344e:	08 f0       	brcs	.+2      	; 0x3452 <SD_Card_Init+0x75c>
    3450:	6f ce       	rjmp	.-802    	; 0x3130 <SD_Card_Init+0x43a>
    3452:	60 ce       	rjmp	.-832    	; 0x3114 <SD_Card_Init+0x41e>
		}
        UART_Transmit(&UART1,CR);
        UART_Transmit(&UART1,LF);
		if((valsout[1]&0x80)!=0x80)
		{
		   error_flag=card_inactive;
    3454:	16 e8       	ldi	r17, 0x86	; 134
    3456:	08 c0       	rjmp	.+16     	; 0x3468 <SD_Card_Init+0x772>
		}
        UART_Transmit(&UART1,CR);
        UART_Transmit(&UART1,LF);
		if(valsout[4]!=0xAA)
		{
		   error_flag=response_error;
    3458:	13 e8       	ldi	r17, 0x83	; 131
    345a:	b8 ce       	rjmp	.-656    	; 0x31cc <SD_Card_Init+0x4d6>
	    if((valsout[0]==0x01)||(valsout[0]==0x00))
		   error_flag=Send_Command(ACMD41,argument);
	    if(error_flag==no_errors) Receive_Response(1,valsout);
		timeout++;
		if(timeout==0) error_flag=timeout_error;
	   }while(((valsout[0]&0x01)==0x01)&&(error_flag==no_errors));
    345c:	89 81       	ldd	r24, Y+1	; 0x01
    345e:	80 fd       	sbrc	r24, 0
    3460:	a5 ce       	rjmp	.-694    	; 0x31ac <SD_Card_Init+0x4b6>
		if(error_flag==no_errors)  error_flag=Receive_Response(1,valsout);
	    if((valsout[0]==0x01)||(valsout[0]==0x00))
		   error_flag=Send_Command(ACMD41,argument);
	    if(error_flag==no_errors) Receive_Response(1,valsout);
		timeout++;
		if(timeout==0) error_flag=timeout_error;
    3462:	11 e8       	ldi	r17, 0x81	; 129
    3464:	70 ce       	rjmp	.-800    	; 0x3146 <SD_Card_Init+0x450>
		}
        UART_Transmit(&UART1,CR);
        UART_Transmit(&UART1,LF);
		if((valsout[2]&0xFC)!=0xFC)
		{
		   error_flag=voltage_error;
    3466:	15 e8       	ldi	r17, 0x85	; 133
 /*if(error_status!=no_errors)
 {		
	//Print_Error(error_status);
 } */
return error_status;
}
    3468:	81 2f       	mov	r24, r17
    346a:	28 96       	adiw	r28, 0x08	; 8
    346c:	0f b6       	in	r0, 0x3f	; 63
    346e:	f8 94       	cli
    3470:	de bf       	out	0x3e, r29	; 62
    3472:	0f be       	out	0x3f, r0	; 63
    3474:	cd bf       	out	0x3d, r28	; 61
    3476:	df 91       	pop	r29
    3478:	cf 91       	pop	r28
    347a:	1f 91       	pop	r17
    347c:	0f 91       	pop	r16
    347e:	ff 90       	pop	r15
    3480:	ef 90       	pop	r14
    3482:	df 90       	pop	r13
    3484:	bf 90       	pop	r11
    3486:	af 90       	pop	r10
    3488:	9f 90       	pop	r9
    348a:	8f 90       	pop	r8
    348c:	08 95       	ret

0000348e <SPI_Master_Init>:
CAUTION: Sets the CPHA to 0 and CPOL to 0
         Disables SS and sets master mode 
************************************************************************/

uint8_t SPI_Master_Init(uint8_t volatile *SPI_addr, uint32_t clock_rate)
{
    348e:	cf 92       	push	r12
    3490:	df 92       	push	r13
    3492:	ef 92       	push	r14
    3494:	ff 92       	push	r15
    3496:	cf 93       	push	r28
    3498:	df 93       	push	r29
    349a:	ec 01       	movw	r28, r24
    349c:	6a 01       	movw	r12, r20
    349e:	7b 01       	movw	r14, r22
  uint8_t divider,return_val,SPR_val;
  // Enable MOSI and SCK outputs
  if(SPI_addr==&SPI0)
    34a0:	8c 34       	cpi	r24, 0x4C	; 76
    34a2:	91 05       	cpc	r25, r1
    34a4:	a9 f4       	brne	.+42     	; 0x34d0 <SPI_Master_Init+0x42>
  {
     Output_Set(&PB,MOSI);
    34a6:	60 e2       	ldi	r22, 0x20	; 32
    34a8:	83 e2       	ldi	r24, 0x23	; 35
    34aa:	90 e0       	ldi	r25, 0x00	; 0
    34ac:	0e 94 cd 09 	call	0x139a	; 0x139a <Output_Set>
     Output_Init(&PB,MOSI);
    34b0:	60 e2       	ldi	r22, 0x20	; 32
    34b2:	83 e2       	ldi	r24, 0x23	; 35
    34b4:	90 e0       	ldi	r25, 0x00	; 0
    34b6:	0e 94 c8 09 	call	0x1390	; 0x1390 <Output_Init>
	 if(Clock_Polarity==0)
	 {
	   Output_Clear(&PB,SCK);
    34ba:	60 e8       	ldi	r22, 0x80	; 128
    34bc:	83 e2       	ldi	r24, 0x23	; 35
    34be:	90 e0       	ldi	r25, 0x00	; 0
    34c0:	0e 94 d2 09 	call	0x13a4	; 0x13a4 <Output_Clear>
	   Output_Init(&PB,SCK);
    34c4:	60 e8       	ldi	r22, 0x80	; 128
    34c6:	83 e2       	ldi	r24, 0x23	; 35
    34c8:	90 e0       	ldi	r25, 0x00	; 0
    34ca:	0e 94 c8 09 	call	0x1390	; 0x1390 <Output_Init>
    34ce:	17 c0       	rjmp	.+46     	; 0x34fe <SPI_Master_Init+0x70>
	 {
	   Output_Set(&PB,SCK);
	   Output_Init(&PB,SCK);
	 }
  }
  else if(SPI_addr==&SPI1)
    34d0:	8c 3a       	cpi	r24, 0xAC	; 172
    34d2:	91 05       	cpc	r25, r1
    34d4:	a1 f4       	brne	.+40     	; 0x34fe <SPI_Master_Init+0x70>
  {
     Output_Set(&PE,(1<<3));
    34d6:	68 e0       	ldi	r22, 0x08	; 8
    34d8:	8c e2       	ldi	r24, 0x2C	; 44
    34da:	90 e0       	ldi	r25, 0x00	; 0
    34dc:	0e 94 cd 09 	call	0x139a	; 0x139a <Output_Set>
     Output_Init(&PE,(1<<3));
    34e0:	68 e0       	ldi	r22, 0x08	; 8
    34e2:	8c e2       	ldi	r24, 0x2C	; 44
    34e4:	90 e0       	ldi	r25, 0x00	; 0
    34e6:	0e 94 c8 09 	call	0x1390	; 0x1390 <Output_Init>
	 if(Clock_Polarity==0)
	 {
	   Output_Clear(&PD,(1<<7));
    34ea:	60 e8       	ldi	r22, 0x80	; 128
    34ec:	89 e2       	ldi	r24, 0x29	; 41
    34ee:	90 e0       	ldi	r25, 0x00	; 0
    34f0:	0e 94 d2 09 	call	0x13a4	; 0x13a4 <Output_Clear>
	   Output_Init(&PD,(1<<7));
    34f4:	60 e8       	ldi	r22, 0x80	; 128
    34f6:	89 e2       	ldi	r24, 0x29	; 41
    34f8:	90 e0       	ldi	r25, 0x00	; 0
    34fa:	0e 94 c8 09 	call	0x1390	; 0x1390 <Output_Init>
	 }
  }


  return_val=no_errors;
  divider=(uint8_t)((F_CPU/F_DIV)/clock_rate);
    34fe:	60 e0       	ldi	r22, 0x00	; 0
    3500:	74 e2       	ldi	r23, 0x24	; 36
    3502:	84 ef       	ldi	r24, 0xF4	; 244
    3504:	90 e0       	ldi	r25, 0x00	; 0
    3506:	a7 01       	movw	r20, r14
    3508:	96 01       	movw	r18, r12
    350a:	0e 94 9c 1d 	call	0x3b38	; 0x3b38 <__udivmodsi4>
  if(divider<2)
    350e:	22 30       	cpi	r18, 0x02	; 2
    3510:	30 f4       	brcc	.+12     	; 0x351e <SPI_Master_Init+0x90>
  {
     SPR_val=0;
	 *(SPI_addr+SPCR)=((1<<SPE)|(1<<MSTR)|(Clock_Polarity<<3)|(Clock_Phase<<2)|SPR_val);
    3512:	80 e5       	ldi	r24, 0x50	; 80
    3514:	88 83       	st	Y, r24
	 *(SPI_addr+SPSR)=1;
    3516:	81 e0       	ldi	r24, 0x01	; 1
    3518:	89 83       	std	Y+1, r24	; 0x01
	   Output_Init(&PD,(1<<7));
	 }
  }


  return_val=no_errors;
    351a:	80 e0       	ldi	r24, 0x00	; 0
    351c:	38 c0       	rjmp	.+112    	; 0x358e <SPI_Master_Init+0x100>
  {
     SPR_val=0;
	 *(SPI_addr+SPCR)=((1<<SPE)|(1<<MSTR)|(Clock_Polarity<<3)|(Clock_Phase<<2)|SPR_val);
	 *(SPI_addr+SPSR)=1;
  }
  else if((divider>=2)&&(divider<4))
    351e:	8e ef       	ldi	r24, 0xFE	; 254
    3520:	82 0f       	add	r24, r18
    3522:	82 30       	cpi	r24, 0x02	; 2
    3524:	28 f4       	brcc	.+10     	; 0x3530 <SPI_Master_Init+0xa2>
  {
     SPR_val=0;
	 *(SPI_addr+SPCR)=((1<<SPE)|(1<<MSTR)|(Clock_Polarity<<3)|(Clock_Phase<<2)|SPR_val);
    3526:	80 e5       	ldi	r24, 0x50	; 80
    3528:	88 83       	st	Y, r24
	 *(SPI_addr+SPSR)=0;
    352a:	19 82       	std	Y+1, r1	; 0x01
	   Output_Init(&PD,(1<<7));
	 }
  }


  return_val=no_errors;
    352c:	80 e0       	ldi	r24, 0x00	; 0
    352e:	2f c0       	rjmp	.+94     	; 0x358e <SPI_Master_Init+0x100>
  {
     SPR_val=0;
	 *(SPI_addr+SPCR)=((1<<SPE)|(1<<MSTR)|(Clock_Polarity<<3)|(Clock_Phase<<2)|SPR_val);
	 *(SPI_addr+SPSR)=0;
  }
  else if((divider>=4)&&(divider<8))
    3530:	8c ef       	ldi	r24, 0xFC	; 252
    3532:	82 0f       	add	r24, r18
    3534:	84 30       	cpi	r24, 0x04	; 4
    3536:	30 f4       	brcc	.+12     	; 0x3544 <SPI_Master_Init+0xb6>
  {
     SPR_val=1;
	 *(SPI_addr+SPCR)=((1<<SPE)|(1<<MSTR)|(Clock_Polarity<<3)|(Clock_Phase<<2)|SPR_val);
    3538:	81 e5       	ldi	r24, 0x51	; 81
    353a:	88 83       	st	Y, r24
	 *(SPI_addr+SPSR)=1;
    353c:	81 e0       	ldi	r24, 0x01	; 1
    353e:	89 83       	std	Y+1, r24	; 0x01
	   Output_Init(&PD,(1<<7));
	 }
  }


  return_val=no_errors;
    3540:	80 e0       	ldi	r24, 0x00	; 0
    3542:	25 c0       	rjmp	.+74     	; 0x358e <SPI_Master_Init+0x100>
  {
     SPR_val=1;
	 *(SPI_addr+SPCR)=((1<<SPE)|(1<<MSTR)|(Clock_Polarity<<3)|(Clock_Phase<<2)|SPR_val);
	 *(SPI_addr+SPSR)=1;
  }
  else if((divider>=8)&&(divider<16))
    3544:	88 ef       	ldi	r24, 0xF8	; 248
    3546:	82 0f       	add	r24, r18
    3548:	88 30       	cpi	r24, 0x08	; 8
    354a:	28 f4       	brcc	.+10     	; 0x3556 <SPI_Master_Init+0xc8>
  {
     SPR_val=1;
	 *(SPI_addr+SPCR)=((1<<SPE)|(1<<MSTR)|(Clock_Polarity<<3)|(Clock_Phase<<2)|SPR_val);
    354c:	81 e5       	ldi	r24, 0x51	; 81
    354e:	88 83       	st	Y, r24
	 *(SPI_addr+SPSR)=0;
    3550:	19 82       	std	Y+1, r1	; 0x01
	   Output_Init(&PD,(1<<7));
	 }
  }


  return_val=no_errors;
    3552:	80 e0       	ldi	r24, 0x00	; 0
    3554:	1c c0       	rjmp	.+56     	; 0x358e <SPI_Master_Init+0x100>
  {
     SPR_val=1;
	 *(SPI_addr+SPCR)=((1<<SPE)|(1<<MSTR)|(Clock_Polarity<<3)|(Clock_Phase<<2)|SPR_val);
	 *(SPI_addr+SPSR)=0;
  } 
  else if((divider>=16)&&(divider<32))
    3556:	80 ef       	ldi	r24, 0xF0	; 240
    3558:	82 0f       	add	r24, r18
    355a:	80 31       	cpi	r24, 0x10	; 16
    355c:	30 f4       	brcc	.+12     	; 0x356a <SPI_Master_Init+0xdc>
  {
     SPR_val=2;
	 *(SPI_addr+SPCR)=((1<<SPE)|(1<<MSTR)|(Clock_Polarity<<3)|(Clock_Phase<<2)|SPR_val);
    355e:	82 e5       	ldi	r24, 0x52	; 82
    3560:	88 83       	st	Y, r24
	 *(SPI_addr+SPSR)=1;
    3562:	81 e0       	ldi	r24, 0x01	; 1
    3564:	89 83       	std	Y+1, r24	; 0x01
	   Output_Init(&PD,(1<<7));
	 }
  }


  return_val=no_errors;
    3566:	80 e0       	ldi	r24, 0x00	; 0
    3568:	12 c0       	rjmp	.+36     	; 0x358e <SPI_Master_Init+0x100>
  {
     SPR_val=2;
	 *(SPI_addr+SPCR)=((1<<SPE)|(1<<MSTR)|(Clock_Polarity<<3)|(Clock_Phase<<2)|SPR_val);
	 *(SPI_addr+SPSR)=1;
  }
  else if((divider>=32)&&(divider<64))
    356a:	80 ee       	ldi	r24, 0xE0	; 224
    356c:	82 0f       	add	r24, r18
    356e:	80 32       	cpi	r24, 0x20	; 32
    3570:	28 f4       	brcc	.+10     	; 0x357c <SPI_Master_Init+0xee>
  {
     SPR_val=2;
	 *(SPI_addr+SPCR)=((1<<SPE)|(1<<MSTR)|(Clock_Polarity<<3)|(Clock_Phase<<2)|SPR_val);
    3572:	82 e5       	ldi	r24, 0x52	; 82
    3574:	88 83       	st	Y, r24
	 *(SPI_addr+SPSR)=0;
    3576:	19 82       	std	Y+1, r1	; 0x01
	   Output_Init(&PD,(1<<7));
	 }
  }


  return_val=no_errors;
    3578:	80 e0       	ldi	r24, 0x00	; 0
    357a:	09 c0       	rjmp	.+18     	; 0x358e <SPI_Master_Init+0x100>
  {
     SPR_val=2;
	 *(SPI_addr+SPCR)=((1<<SPE)|(1<<MSTR)|(Clock_Polarity<<3)|(Clock_Phase<<2)|SPR_val);
	 *(SPI_addr+SPSR)=0;
  }
  else if((divider>=64)&&(divider<128))
    357c:	20 54       	subi	r18, 0x40	; 64
    357e:	20 34       	cpi	r18, 0x40	; 64
    3580:	28 f4       	brcc	.+10     	; 0x358c <SPI_Master_Init+0xfe>
  {
     SPR_val=3;
	 *(SPI_addr+SPCR)=((1<<SPE)|(1<<MSTR)|(Clock_Polarity<<3)|(Clock_Phase<<2)|SPR_val);
    3582:	83 e5       	ldi	r24, 0x53	; 83
    3584:	88 83       	st	Y, r24
	 *(SPI_addr+SPSR)=0;
    3586:	19 82       	std	Y+1, r1	; 0x01
	   Output_Init(&PD,(1<<7));
	 }
  }


  return_val=no_errors;
    3588:	80 e0       	ldi	r24, 0x00	; 0
    358a:	01 c0       	rjmp	.+2      	; 0x358e <SPI_Master_Init+0x100>
	 *(SPI_addr+SPCR)=((1<<SPE)|(1<<MSTR)|(Clock_Polarity<<3)|(Clock_Phase<<2)|SPR_val);
	 *(SPI_addr+SPSR)=0;
  }
  else  // if the SPI clock rate is too slow, a divider cannot be found
  {
    return_val=illegal_clockrate;
    358c:	8f e0       	ldi	r24, 0x0F	; 15
  }
  return return_val;
}
    358e:	df 91       	pop	r29
    3590:	cf 91       	pop	r28
    3592:	ff 90       	pop	r15
    3594:	ef 90       	pop	r14
    3596:	df 90       	pop	r13
    3598:	cf 90       	pop	r12
    359a:	08 95       	ret

0000359c <SPI_Transfer>:
CAUTION: Waits for the SPI transfer to be complete
************************************************************************/


uint8_t SPI_Transfer(uint8_t volatile *SPI_addr, uint8_t data_input)
{
    359c:	fc 01       	movw	r30, r24
   uint8_t test;
   *(SPI_addr+SPDR)=data_input;
    359e:	62 83       	std	Z+2, r22	; 0x02
   do
   {
      test=*(SPI_addr+SPSR);
    35a0:	91 81       	ldd	r25, Z+1	; 0x01
   }while((test&0x80)==0);
    35a2:	99 23       	and	r25, r25
    35a4:	ec f7       	brge	.-6      	; 0x35a0 <SPI_Transfer+0x4>
   
   return *(SPI_addr+SPDR);
    35a6:	82 81       	ldd	r24, Z+2	; 0x02
}
    35a8:	08 95       	ret

000035aa <STA013_Init>:
const char STA_sent_prnt[17] PROGMEM = {"Sent to STA013: "};
const char STA_rec_prnt[21] PROGMEM = {"Output from STA013: "};
const char Config_Complete_prnt[25] PROGMEM = {"Configuration Complete\n\r"};
	
uint8_t STA013_Init(void)
{
    35aa:	2f 92       	push	r2
    35ac:	3f 92       	push	r3
    35ae:	4f 92       	push	r4
    35b0:	5f 92       	push	r5
    35b2:	6f 92       	push	r6
    35b4:	7f 92       	push	r7
    35b6:	8f 92       	push	r8
    35b8:	9f 92       	push	r9
    35ba:	af 92       	push	r10
    35bc:	bf 92       	push	r11
    35be:	cf 92       	push	r12
    35c0:	df 92       	push	r13
    35c2:	ef 92       	push	r14
    35c4:	ff 92       	push	r15
    35c6:	0f 93       	push	r16
    35c8:	1f 93       	push	r17
    35ca:	cf 93       	push	r28
    35cc:	df 93       	push	r29
    35ce:	00 d0       	rcall	.+0      	; 0x35d0 <STA013_Init+0x26>
    35d0:	00 d0       	rcall	.+0      	; 0x35d2 <STA013_Init+0x28>
    35d2:	cd b7       	in	r28, 0x3d	; 61
    35d4:	de b7       	in	r29, 0x3e	; 62
   char * prnt_bffr;
   
   
   //STA013_RESET=0;
   //STA013_Reset_Control(0);
   Output_Clear(&PB,(1<<1));
    35d6:	62 e0       	ldi	r22, 0x02	; 2
    35d8:	83 e2       	ldi	r24, 0x23	; 35
    35da:	90 e0       	ldi	r25, 0x00	; 0
    35dc:	0e 94 d2 09 	call	0x13a4	; 0x13a4 <Output_Clear>
   Output_Init(&PB,(1<<1));
    35e0:	62 e0       	ldi	r22, 0x02	; 2
    35e2:	83 e2       	ldi	r24, 0x23	; 35
    35e4:	90 e0       	ldi	r25, 0x00	; 0
    35e6:	0e 94 c8 09 	call	0x1390	; 0x1390 <Output_Init>
   //send[0]=0x01;   // address of the ID reg.  
   timeout=50;
   prnt_bffr=Export_print_buffer();
    35ea:	0e 94 2b 1d 	call	0x3a56	; 0x3a56 <Export_print_buffer>
    35ee:	5c 01       	movw	r10, r24
   //STA013_RESET=1;    // make STA013 active
   //STA013_Reset_Control(1);
   Output_Set(&PB,(1<<1));
    35f0:	62 e0       	ldi	r22, 0x02	; 2
    35f2:	83 e2       	ldi	r24, 0x23	; 35
    35f4:	90 e0       	ldi	r25, 0x00	; 0
    35f6:	0e 94 cd 09 	call	0x139a	; 0x139a <Output_Set>
		  length = Copy_String_to_Buffer(Error_prnt,prnt_bffr);
		  sprintf((prnt_bffr+(length-1)), "%2.2X \n\r",error_flag);
		  UART1_Transmit_String(0,prnt_bffr);
	  }
   }while((error_flag!=no_errors)&&(timeout!=0)); */
      timeout=50;
    35fa:	0f 2e       	mov	r0, r31
    35fc:	f2 e3       	ldi	r31, 0x32	; 50
    35fe:	ff 2e       	mov	r15, r31
    3600:	f0 2d       	mov	r31, r0
	  do
	  {
        error_flag=TWI_Master_Receive(&TWI1,STA013,1,1,1,rcv);
    3602:	9e 01       	movw	r18, r28
    3604:	2d 5f       	subi	r18, 0xFD	; 253
    3606:	3f 4f       	sbci	r19, 0xFF	; 255
    3608:	69 01       	movw	r12, r18
    360a:	ee 24       	eor	r14, r14
    360c:	e3 94       	inc	r14
    360e:	01 e0       	ldi	r16, 0x01	; 1
    3610:	21 e0       	ldi	r18, 0x01	; 1
    3612:	30 e0       	ldi	r19, 0x00	; 0
    3614:	40 e0       	ldi	r20, 0x00	; 0
    3616:	50 e0       	ldi	r21, 0x00	; 0
    3618:	63 e4       	ldi	r22, 0x43	; 67
    361a:	88 ed       	ldi	r24, 0xD8	; 216
    361c:	90 e0       	ldi	r25, 0x00	; 0
    361e:	0e 94 be 11 	call	0x237c	; 0x237c <TWI_Master_Receive>
    3622:	18 2f       	mov	r17, r24
        timeout--;
    3624:	fa 94       	dec	r15
	  }while((error_flag!=no_errors)&&(timeout!=0));
    3626:	88 23       	and	r24, r24
    3628:	19 f0       	breq	.+6      	; 0x3630 <STA013_Init+0x86>
    362a:	f1 10       	cpse	r15, r1
    362c:	ea cf       	rjmp	.-44     	; 0x3602 <STA013_Init+0x58>
    362e:	24 c0       	rjmp	.+72     	; 0x3678 <STA013_Init+0xce>
	  //send[0]='I';
	  //send[1]='2';
	  //send[2]='C';
	  //LCD_Print(3,send);
	  if(timeout!=0)
    3630:	ff 20       	and	r15, r15
    3632:	11 f1       	breq	.+68     	; 0x3678 <STA013_Init+0xce>
	  {
         length = Copy_String_to_Buffer(ID_Reg_prnt,0,prnt_bffr);
    3634:	a5 01       	movw	r20, r10
    3636:	60 e0       	ldi	r22, 0x00	; 0
    3638:	86 e0       	ldi	r24, 0x06	; 6
    363a:	93 e1       	ldi	r25, 0x13	; 19
    363c:	0e 94 2e 1d 	call	0x3a5c	; 0x3a5c <Copy_String_to_Buffer>
         sprintf((prnt_bffr+(length-1)), "%2.2X \n\r",rcv[0]);
    3640:	9b 81       	ldd	r25, Y+3	; 0x03
    3642:	1f 92       	push	r1
    3644:	9f 93       	push	r25
    3646:	20 ed       	ldi	r18, 0xD0	; 208
    3648:	31 e0       	ldi	r19, 0x01	; 1
    364a:	3f 93       	push	r19
    364c:	2f 93       	push	r18
    364e:	90 e0       	ldi	r25, 0x00	; 0
    3650:	01 97       	sbiw	r24, 0x01	; 1
    3652:	8a 0d       	add	r24, r10
    3654:	9b 1d       	adc	r25, r11
    3656:	9f 93       	push	r25
    3658:	8f 93       	push	r24
    365a:	0e 94 14 1e 	call	0x3c28	; 0x3c28 <sprintf>
		 //sprintf(prnt_bffr, "Output from ID register: %2.2X \n\r",rcv[0]);
		 UART_Transmit_String(&UART1,0,prnt_bffr);
    365e:	a5 01       	movw	r20, r10
    3660:	60 e0       	ldi	r22, 0x00	; 0
    3662:	88 ec       	ldi	r24, 0xC8	; 200
    3664:	90 e0       	ldi	r25, 0x00	; 0
    3666:	0e 94 4e 1d 	call	0x3a9c	; 0x3a9c <UART_Transmit_String>
    366a:	0f 90       	pop	r0
    366c:	0f 90       	pop	r0
    366e:	0f 90       	pop	r0
    3670:	0f 90       	pop	r0
    3672:	0f 90       	pop	r0
    3674:	0f 90       	pop	r0
    3676:	20 c0       	rjmp	.+64     	; 0x36b8 <STA013_Init+0x10e>
	  }
	  else
	  {
		  length = Copy_String_to_Buffer(Error_prnt,0,prnt_bffr);
    3678:	a5 01       	movw	r20, r10
    367a:	60 e0       	ldi	r22, 0x00	; 0
    367c:	80 e2       	ldi	r24, 0x20	; 32
    367e:	93 e1       	ldi	r25, 0x13	; 19
    3680:	0e 94 2e 1d 	call	0x3a5c	; 0x3a5c <Copy_String_to_Buffer>
		  sprintf((prnt_bffr+(length-1)), "%2.2X \n\r",error_flag);
    3684:	1f 92       	push	r1
    3686:	1f 93       	push	r17
    3688:	20 ed       	ldi	r18, 0xD0	; 208
    368a:	31 e0       	ldi	r19, 0x01	; 1
    368c:	3f 93       	push	r19
    368e:	2f 93       	push	r18
    3690:	90 e0       	ldi	r25, 0x00	; 0
    3692:	01 97       	sbiw	r24, 0x01	; 1
    3694:	8a 0d       	add	r24, r10
    3696:	9b 1d       	adc	r25, r11
    3698:	9f 93       	push	r25
    369a:	8f 93       	push	r24
    369c:	0e 94 14 1e 	call	0x3c28	; 0x3c28 <sprintf>
		  UART_Transmit_String(&UART1,0,prnt_bffr);
    36a0:	a5 01       	movw	r20, r10
    36a2:	60 e0       	ldi	r22, 0x00	; 0
    36a4:	88 ec       	ldi	r24, 0xC8	; 200
    36a6:	90 e0       	ldi	r25, 0x00	; 0
    36a8:	0e 94 4e 1d 	call	0x3a9c	; 0x3a9c <UART_Transmit_String>
    36ac:	0f 90       	pop	r0
    36ae:	0f 90       	pop	r0
    36b0:	0f 90       	pop	r0
    36b2:	0f 90       	pop	r0
    36b4:	0f 90       	pop	r0
    36b6:	0f 90       	pop	r0
	  } 
   

   //LED1_Control(1);
   Output_Set(&PB,LED1);
    36b8:	68 e0       	ldi	r22, 0x08	; 8
    36ba:	83 e2       	ldi	r24, 0x23	; 35
    36bc:	90 e0       	ldi	r25, 0x00	; 0
    36be:	0e 94 cd 09 	call	0x139a	; 0x139a <Output_Set>
   //rcv[0]=0xAC;
   if(rcv[0]==0xAC)
    36c2:	8b 81       	ldd	r24, Y+3	; 0x03
    36c4:	8c 3a       	cpi	r24, 0xAC	; 172
    36c6:	09 f0       	breq	.+2      	; 0x36ca <STA013_Init+0x120>
    36c8:	4d c1       	rjmp	.+666    	; 0x3964 <STA013_Init+0x3ba>
    36ca:	81 2c       	mov	r8, r1
    36cc:	91 2c       	mov	r9, r1
     //sprintf(prnt_bffr, "STA013 SoftVersion: %2.2X \n\r",rcv[0]); 
	 UART1_Transmit_String(0,prnt_bffr); */
     j=0;
     do
     {
        reg_addr=pgm_read_byte(&CONFIG[j]);
    36ce:	f4 01       	movw	r30, r8
    36d0:	e2 50       	subi	r30, 0x02	; 2
    36d2:	ff 4f       	sbci	r31, 0xFF	; 255
    36d4:	84 91       	lpm	r24, Z
        j++;
        send[0]=pgm_read_byte(&CONFIG[j]);
    36d6:	f4 01       	movw	r30, r8
    36d8:	e1 50       	subi	r30, 0x01	; 1
    36da:	ff 4f       	sbci	r31, 0xFF	; 255
    36dc:	e4 91       	lpm	r30, Z
    36de:	e9 83       	std	Y+1, r30	; 0x01
        j++;
    36e0:	32 e0       	ldi	r19, 0x02	; 2
    36e2:	83 0e       	add	r8, r19
    36e4:	91 1c       	adc	r9, r1
        if(reg_addr!=0xff)
    36e6:	8f 3f       	cpi	r24, 0xFF	; 255
    36e8:	89 f1       	breq	.+98     	; 0x374c <STA013_Init+0x1a2>
    36ea:	12 e3       	ldi	r17, 0x32	; 50
        {
          
           timeout=50;
           do
           {
               error_flag=TWI_Master_Transmit(&TWI1,STA013,reg_addr,1,1,send);
    36ec:	48 2e       	mov	r4, r24
    36ee:	51 2c       	mov	r5, r1
    36f0:	61 2c       	mov	r6, r1
    36f2:	71 2c       	mov	r7, r1
    36f4:	ce 01       	movw	r24, r28
    36f6:	01 96       	adiw	r24, 0x01	; 1
    36f8:	6c 01       	movw	r12, r24
    36fa:	ee 24       	eor	r14, r14
    36fc:	e3 94       	inc	r14
    36fe:	01 e0       	ldi	r16, 0x01	; 1
    3700:	a3 01       	movw	r20, r6
    3702:	92 01       	movw	r18, r4
    3704:	63 e4       	ldi	r22, 0x43	; 67
    3706:	88 ed       	ldi	r24, 0xD8	; 216
    3708:	90 e0       	ldi	r25, 0x00	; 0
    370a:	0e 94 c4 10 	call	0x2188	; 0x2188 <TWI_Master_Transmit>
    370e:	f8 2e       	mov	r15, r24
               timeout--;
    3710:	11 50       	subi	r17, 0x01	; 1
               if(timeout==0)
    3712:	09 f0       	breq	.+2      	; 0x3716 <STA013_Init+0x16c>
    3714:	1b c1       	rjmp	.+566    	; 0x394c <STA013_Init+0x3a2>
			   {
				    Output_Set(&PC,USER_LED);
    3716:	60 e8       	ldi	r22, 0x80	; 128
    3718:	86 e2       	ldi	r24, 0x26	; 38
    371a:	90 e0       	ldi	r25, 0x00	; 0
    371c:	0e 94 cd 09 	call	0x139a	; 0x139a <Output_Set>
					sprintf(prnt_bffr,"%u\n\r",error_flag);
    3720:	1f 92       	push	r1
    3722:	ff 92       	push	r15
    3724:	84 ec       	ldi	r24, 0xC4	; 196
    3726:	91 e0       	ldi	r25, 0x01	; 1
    3728:	9f 93       	push	r25
    372a:	8f 93       	push	r24
    372c:	bf 92       	push	r11
    372e:	af 92       	push	r10
    3730:	0e 94 14 1e 	call	0x3c28	; 0x3c28 <sprintf>
					UART_Transmit_String(&UART1,0,prnt_bffr);
    3734:	a5 01       	movw	r20, r10
    3736:	60 e0       	ldi	r22, 0x00	; 0
    3738:	88 ec       	ldi	r24, 0xC8	; 200
    373a:	90 e0       	ldi	r25, 0x00	; 0
    373c:	0e 94 4e 1d 	call	0x3a9c	; 0x3a9c <UART_Transmit_String>
    3740:	0f 90       	pop	r0
    3742:	0f 90       	pop	r0
    3744:	0f 90       	pop	r0
    3746:	0f 90       	pop	r0
    3748:	0f 90       	pop	r0
    374a:	0f 90       	pop	r0
			   }
           }while((error_flag!=no_errors)&&(timeout!=0));
        }
     }while((reg_addr!=0xff) && (timeout!=0));
	 Copy_String_to_Buffer(First_config_prnt,0,prnt_bffr);
    374c:	a5 01       	movw	r20, r10
    374e:	60 e0       	ldi	r22, 0x00	; 0
    3750:	83 ee       	ldi	r24, 0xE3	; 227
    3752:	92 e1       	ldi	r25, 0x12	; 18
    3754:	0e 94 2e 1d 	call	0x3a5c	; 0x3a5c <Copy_String_to_Buffer>
     //sprintf(prnt_bffr, "First configuration file sent...\n\r");
	 UART_Transmit_String(&UART1,0,prnt_bffr);
    3758:	a5 01       	movw	r20, r10
    375a:	60 e0       	ldi	r22, 0x00	; 0
    375c:	88 ec       	ldi	r24, 0xC8	; 200
    375e:	90 e0       	ldi	r25, 0x00	; 0
    3760:	0e 94 4e 1d 	call	0x3a9c	; 0x3a9c <UART_Transmit_String>
	 length = Copy_String_to_Buffer(Number_written_prnt,0,prnt_bffr);
    3764:	a5 01       	movw	r20, r10
    3766:	60 e0       	ldi	r22, 0x00	; 0
    3768:	88 ec       	ldi	r24, 0xC8	; 200
    376a:	92 e1       	ldi	r25, 0x12	; 18
    376c:	0e 94 2e 1d 	call	0x3a5c	; 0x3a5c <Copy_String_to_Buffer>
	 sprintf((prnt_bffr+(length-1)), "%2.2X \n\r",j>>1);
    3770:	96 94       	lsr	r9
    3772:	87 94       	ror	r8
    3774:	9f 92       	push	r9
    3776:	8f 92       	push	r8
    3778:	20 ed       	ldi	r18, 0xD0	; 208
    377a:	31 e0       	ldi	r19, 0x01	; 1
    377c:	3f 93       	push	r19
    377e:	2f 93       	push	r18
    3780:	90 e0       	ldi	r25, 0x00	; 0
    3782:	01 97       	sbiw	r24, 0x01	; 1
    3784:	8a 0d       	add	r24, r10
    3786:	9b 1d       	adc	r25, r11
    3788:	9f 93       	push	r25
    378a:	8f 93       	push	r24
    378c:	0e 94 14 1e 	call	0x3c28	; 0x3c28 <sprintf>
     //sprintf(prnt_bffr, "Number of values written: %d \n\r",j>>1);
	 UART_Transmit_String(&UART1,0,prnt_bffr);
    3790:	a5 01       	movw	r20, r10
    3792:	60 e0       	ldi	r22, 0x00	; 0
    3794:	88 ec       	ldi	r24, 0xC8	; 200
    3796:	90 e0       	ldi	r25, 0x00	; 0
    3798:	0e 94 4e 1d 	call	0x3a9c	; 0x3a9c <UART_Transmit_String>
	 //LED2_Control(1); 
	 Output_Set(&PE,LED2);
    379c:	60 e1       	ldi	r22, 0x10	; 16
    379e:	8c e2       	ldi	r24, 0x2C	; 44
    37a0:	90 e0       	ldi	r25, 0x00	; 0
    37a2:	0e 94 cd 09 	call	0x139a	; 0x139a <Output_Set>
    37a6:	0f 2e       	mov	r0, r31
    37a8:	fc ec       	ldi	r31, 0xCC	; 204
    37aa:	8f 2e       	mov	r8, r31
    37ac:	f0 e0       	ldi	r31, 0x00	; 0
    37ae:	9f 2e       	mov	r9, r31
    37b0:	f0 2d       	mov	r31, r0
    37b2:	0f 90       	pop	r0
    37b4:	0f 90       	pop	r0
    37b6:	0f 90       	pop	r0
    37b8:	0f 90       	pop	r0
    37ba:	0f 90       	pop	r0
    37bc:	0f 90       	pop	r0
     j=0;
     
     do
     {
        reg_addr=pgm_read_byte(&CONFIG2[j]);
    37be:	f4 01       	movw	r30, r8
    37c0:	84 91       	lpm	r24, Z
        j++;
        send[0]=pgm_read_byte(&CONFIG2[j]);
    37c2:	31 96       	adiw	r30, 0x01	; 1
    37c4:	e4 91       	lpm	r30, Z
    37c6:	e9 83       	std	Y+1, r30	; 0x01
        j++;
        if(reg_addr!=0xff)
    37c8:	8f 3f       	cpi	r24, 0xFF	; 255
    37ca:	c9 f0       	breq	.+50     	; 0x37fe <STA013_Init+0x254>
    37cc:	12 e3       	ldi	r17, 0x32	; 50
        {
           timeout=50;
           do
           {
               error_flag=TWI_Master_Transmit(&TWI1,STA013,reg_addr,1,1,send);
    37ce:	48 2e       	mov	r4, r24
    37d0:	51 2c       	mov	r5, r1
    37d2:	61 2c       	mov	r6, r1
    37d4:	71 2c       	mov	r7, r1
    37d6:	9e 01       	movw	r18, r28
    37d8:	2f 5f       	subi	r18, 0xFF	; 255
    37da:	3f 4f       	sbci	r19, 0xFF	; 255
    37dc:	69 01       	movw	r12, r18
    37de:	ee 24       	eor	r14, r14
    37e0:	e3 94       	inc	r14
    37e2:	01 e0       	ldi	r16, 0x01	; 1
    37e4:	a3 01       	movw	r20, r6
    37e6:	92 01       	movw	r18, r4
    37e8:	63 e4       	ldi	r22, 0x43	; 67
    37ea:	88 ed       	ldi	r24, 0xD8	; 216
    37ec:	90 e0       	ldi	r25, 0x00	; 0
    37ee:	0e 94 c4 10 	call	0x2188	; 0x2188 <TWI_Master_Transmit>
               timeout--;
    37f2:	11 50       	subi	r17, 0x01	; 1
               //if(timeout==0) PORTLED &= ~(1 << PORTLED_AMBER);
           }while((error_flag!=no_errors)&&(timeout!=0));
    37f4:	88 23       	and	r24, r24
    37f6:	09 f4       	brne	.+2      	; 0x37fa <STA013_Init+0x250>
    37f8:	ac c0       	rjmp	.+344    	; 0x3952 <STA013_Init+0x3a8>
    37fa:	11 11       	cpse	r17, r1
    37fc:	ec cf       	rjmp	.-40     	; 0x37d6 <STA013_Init+0x22c>
     length = Copy_String_to_Buffer(STA_Ver_prnt,prnt_bffr);
     sprintf((prnt_bffr+(length-1)), "%2.2X \n\r",rcv[0]);
	 //sprintf(prnt_bffr, "STA013 SoftVersion: %2.2X \n\r",rcv[0]);   
	 UART1_Transmit_String(0,prnt_bffr); */         
     //LED3_Control(1); 
	 Output_Set(&PA,LED3); 
    37fe:	60 e8       	ldi	r22, 0x80	; 128
    3800:	80 e2       	ldi	r24, 0x20	; 32
    3802:	90 e0       	ldi	r25, 0x00	; 0
    3804:	0e 94 cd 09 	call	0x139a	; 0x139a <Output_Set>
    3808:	0f 2e       	mov	r0, r31
    380a:	ff e3       	ldi	r31, 0x3F	; 63
    380c:	8f 2e       	mov	r8, r31
    380e:	f3 e1       	ldi	r31, 0x13	; 19
    3810:	9f 2e       	mov	r9, r31
    3812:	f0 2d       	mov	r31, r0
    3814:	0f 2e       	mov	r0, r31
    3816:	fd e2       	ldi	r31, 0x2D	; 45
    3818:	2f 2e       	mov	r2, r31
    381a:	f3 e1       	ldi	r31, 0x13	; 19
    381c:	3f 2e       	mov	r3, r31
    381e:	f0 2d       	mov	r31, r0
     for(j=0;j<18;j++)
	  {
	    reg_addr=pgm_read_byte(&STA_cfg_addr[j]);
    3820:	f4 01       	movw	r30, r8
    3822:	f4 90       	lpm	r15, Z
	    send[0]=pgm_read_byte(&STA_cfg_data[j]);
    3824:	f1 01       	movw	r30, r2
    3826:	84 91       	lpm	r24, Z
    3828:	89 83       	std	Y+1, r24	; 0x01
        timeout=50;
        do
        {
            error_flag=TWI_Master_Transmit(&TWI1,STA013,reg_addr,1,1,send);
    382a:	4f 2c       	mov	r4, r15
    382c:	51 2c       	mov	r5, r1
    382e:	61 2c       	mov	r6, r1
    3830:	71 2c       	mov	r7, r1
    3832:	9e 01       	movw	r18, r28
    3834:	2f 5f       	subi	r18, 0xFF	; 255
    3836:	3f 4f       	sbci	r19, 0xFF	; 255
    3838:	69 01       	movw	r12, r18
    383a:	ee 24       	eor	r14, r14
    383c:	e3 94       	inc	r14
    383e:	01 e0       	ldi	r16, 0x01	; 1
    3840:	a3 01       	movw	r20, r6
    3842:	92 01       	movw	r18, r4
    3844:	63 e4       	ldi	r22, 0x43	; 67
    3846:	88 ed       	ldi	r24, 0xD8	; 216
    3848:	90 e0       	ldi	r25, 0x00	; 0
    384a:	0e 94 c4 10 	call	0x2188	; 0x2188 <TWI_Master_Transmit>
    384e:	11 e3       	ldi	r17, 0x31	; 49
    3850:	86 c0       	rjmp	.+268    	; 0x395e <STA013_Init+0x3b4>
    3852:	ce 01       	movw	r24, r28
    3854:	01 96       	adiw	r24, 0x01	; 1
    3856:	6c 01       	movw	r12, r24
    3858:	ee 24       	eor	r14, r14
    385a:	e3 94       	inc	r14
    385c:	01 e0       	ldi	r16, 0x01	; 1
    385e:	a3 01       	movw	r20, r6
    3860:	92 01       	movw	r18, r4
    3862:	63 e4       	ldi	r22, 0x43	; 67
    3864:	88 ed       	ldi	r24, 0xD8	; 216
    3866:	90 e0       	ldi	r25, 0x00	; 0
    3868:	0e 94 c4 10 	call	0x2188	; 0x2188 <TWI_Master_Transmit>
    386c:	11 50       	subi	r17, 0x01	; 1
            timeout--;
            if(timeout==0) Output_Set(&PC,USER_LED);
    386e:	09 f0       	breq	.+2      	; 0x3872 <STA013_Init+0x2c8>
    3870:	76 c0       	rjmp	.+236    	; 0x395e <STA013_Init+0x3b4>
    3872:	60 e8       	ldi	r22, 0x80	; 128
    3874:	86 e2       	ldi	r24, 0x26	; 38
    3876:	90 e0       	ldi	r25, 0x00	; 0
    3878:	0e 94 cd 09 	call	0x139a	; 0x139a <Output_Set>
        }while((error_flag!=no_errors)&&(timeout!=0));
		length = Copy_String_to_Buffer(STA_sent_prnt,0,prnt_bffr);
    387c:	a5 01       	movw	r20, r10
    387e:	60 e0       	ldi	r22, 0x00	; 0
    3880:	87 eb       	ldi	r24, 0xB7	; 183
    3882:	92 e1       	ldi	r25, 0x12	; 18
    3884:	0e 94 2e 1d 	call	0x3a5c	; 0x3a5c <Copy_String_to_Buffer>
		sprintf((prnt_bffr+(length-1)), "%2.2X  %2.2X \n\r",reg_addr,send[0]);
    3888:	99 81       	ldd	r25, Y+1	; 0x01
    388a:	1f 92       	push	r1
    388c:	9f 93       	push	r25
    388e:	1f 92       	push	r1
    3890:	ff 92       	push	r15
    3892:	e9 ec       	ldi	r30, 0xC9	; 201
    3894:	f1 e0       	ldi	r31, 0x01	; 1
    3896:	ff 93       	push	r31
    3898:	ef 93       	push	r30
    389a:	90 e0       	ldi	r25, 0x00	; 0
    389c:	01 97       	sbiw	r24, 0x01	; 1
    389e:	8a 0d       	add	r24, r10
    38a0:	9b 1d       	adc	r25, r11
    38a2:	9f 93       	push	r25
    38a4:	8f 93       	push	r24
    38a6:	0e 94 14 1e 	call	0x3c28	; 0x3c28 <sprintf>
		//sprintf(prnt_bffr, "Sent to STA013: %2.2X  %2.2X \n\r",send[0],send[1]);
		UART_Transmit_String(&UART1,0,prnt_bffr);
    38aa:	a5 01       	movw	r20, r10
    38ac:	60 e0       	ldi	r22, 0x00	; 0
    38ae:	88 ec       	ldi	r24, 0xC8	; 200
    38b0:	90 e0       	ldi	r25, 0x00	; 0
    38b2:	0e 94 4e 1d 	call	0x3a9c	; 0x3a9c <UART_Transmit_String>
        //error_flag=I2C_Write(STA013,1,send);
        //error_flag=I2C_Read(STA013,1,rcv);
		error_flag=TWI_Master_Receive(&TWI1,STA013,reg_addr,1,1,rcv);
    38b6:	ce 01       	movw	r24, r28
    38b8:	03 96       	adiw	r24, 0x03	; 3
    38ba:	6c 01       	movw	r12, r24
    38bc:	ee 24       	eor	r14, r14
    38be:	e3 94       	inc	r14
    38c0:	01 e0       	ldi	r16, 0x01	; 1
    38c2:	a3 01       	movw	r20, r6
    38c4:	92 01       	movw	r18, r4
    38c6:	63 e4       	ldi	r22, 0x43	; 67
    38c8:	88 ed       	ldi	r24, 0xD8	; 216
    38ca:	90 e0       	ldi	r25, 0x00	; 0
    38cc:	0e 94 be 11 	call	0x237c	; 0x237c <TWI_Master_Receive>
    38d0:	18 2f       	mov	r17, r24
		length = Copy_String_to_Buffer(STA_rec_prnt,0,prnt_bffr);
    38d2:	a5 01       	movw	r20, r10
    38d4:	60 e0       	ldi	r22, 0x00	; 0
    38d6:	82 ea       	ldi	r24, 0xA2	; 162
    38d8:	92 e1       	ldi	r25, 0x12	; 18
    38da:	0e 94 2e 1d 	call	0x3a5c	; 0x3a5c <Copy_String_to_Buffer>
		sprintf((prnt_bffr+(length-1)), "%2.2X  %2.2X %2.2X \n\r",reg_addr,rcv[0],error_flag);
    38de:	1f 92       	push	r1
    38e0:	1f 93       	push	r17
    38e2:	9b 81       	ldd	r25, Y+3	; 0x03
    38e4:	1f 92       	push	r1
    38e6:	9f 93       	push	r25
    38e8:	1f 92       	push	r1
    38ea:	ff 92       	push	r15
    38ec:	e9 ed       	ldi	r30, 0xD9	; 217
    38ee:	f1 e0       	ldi	r31, 0x01	; 1
    38f0:	ff 93       	push	r31
    38f2:	ef 93       	push	r30
    38f4:	90 e0       	ldi	r25, 0x00	; 0
    38f6:	01 97       	sbiw	r24, 0x01	; 1
    38f8:	8a 0d       	add	r24, r10
    38fa:	9b 1d       	adc	r25, r11
    38fc:	9f 93       	push	r25
    38fe:	8f 93       	push	r24
    3900:	0e 94 14 1e 	call	0x3c28	; 0x3c28 <sprintf>
        //sprintf(prnt_bffr, "Output from register: %2.2X  %2.2X %2.2X \n\r",send[0],rcv[0],error_flag);
		UART_Transmit_String(&UART1,0,prnt_bffr);
    3904:	a5 01       	movw	r20, r10
    3906:	60 e0       	ldi	r22, 0x00	; 0
    3908:	88 ec       	ldi	r24, 0xC8	; 200
    390a:	90 e0       	ldi	r25, 0x00	; 0
    390c:	0e 94 4e 1d 	call	0x3a9c	; 0x3a9c <UART_Transmit_String>
    3910:	3f ef       	ldi	r19, 0xFF	; 255
    3912:	83 1a       	sub	r8, r19
    3914:	93 0a       	sbc	r9, r19
    3916:	8f ef       	ldi	r24, 0xFF	; 255
    3918:	28 1a       	sub	r2, r24
    391a:	38 0a       	sbc	r3, r24
     sprintf((prnt_bffr+(length-1)), "%2.2X \n\r",rcv[0]);
	 //sprintf(prnt_bffr, "STA013 SoftVersion: %2.2X \n\r",rcv[0]);   
	 UART1_Transmit_String(0,prnt_bffr); */         
     //LED3_Control(1); 
	 Output_Set(&PA,LED3); 
     for(j=0;j<18;j++)
    391c:	0f b6       	in	r0, 0x3f	; 63
    391e:	f8 94       	cli
    3920:	de bf       	out	0x3e, r29	; 62
    3922:	0f be       	out	0x3f, r0	; 63
    3924:	cd bf       	out	0x3d, r28	; 61
    3926:	f1 e5       	ldi	r31, 0x51	; 81
    3928:	8f 16       	cp	r8, r31
    392a:	f3 e1       	ldi	r31, 0x13	; 19
    392c:	9f 06       	cpc	r9, r31
    392e:	09 f0       	breq	.+2      	; 0x3932 <STA013_Init+0x388>
    3930:	77 cf       	rjmp	.-274    	; 0x3820 <STA013_Init+0x276>
		length = Copy_String_to_Buffer(STA_rec_prnt,0,prnt_bffr);
		sprintf((prnt_bffr+(length-1)), "%2.2X  %2.2X %2.2X \n\r",reg_addr,rcv[0],error_flag);
        //sprintf(prnt_bffr, "Output from register: %2.2X  %2.2X %2.2X \n\r",send[0],rcv[0],error_flag);
		UART_Transmit_String(&UART1,0,prnt_bffr);
	  }
	  Copy_String_to_Buffer(Config_Complete_prnt,0,prnt_bffr);
    3932:	a5 01       	movw	r20, r10
    3934:	60 e0       	ldi	r22, 0x00	; 0
    3936:	89 e8       	ldi	r24, 0x89	; 137
    3938:	92 e1       	ldi	r25, 0x12	; 18
    393a:	0e 94 2e 1d 	call	0x3a5c	; 0x3a5c <Copy_String_to_Buffer>
      //sprintf(prnt_bffr, "Configuration Complete\n\r");
	  UART_Transmit_String(&UART1,0,prnt_bffr);
    393e:	a5 01       	movw	r20, r10
    3940:	60 e0       	ldi	r22, 0x00	; 0
    3942:	88 ec       	ldi	r24, 0xC8	; 200
    3944:	90 e0       	ldi	r25, 0x00	; 0
    3946:	0e 94 4e 1d 	call	0x3a9c	; 0x3a9c <UART_Transmit_String>
    394a:	0c c0       	rjmp	.+24     	; 0x3964 <STA013_Init+0x3ba>
			   {
				    Output_Set(&PC,USER_LED);
					sprintf(prnt_bffr,"%u\n\r",error_flag);
					UART_Transmit_String(&UART1,0,prnt_bffr);
			   }
           }while((error_flag!=no_errors)&&(timeout!=0));
    394c:	81 11       	cpse	r24, r1
    394e:	d2 ce       	rjmp	.-604    	; 0x36f4 <STA013_Init+0x14a>
    3950:	be ce       	rjmp	.-644    	; 0x36ce <STA013_Init+0x124>
    3952:	22 e0       	ldi	r18, 0x02	; 2
    3954:	82 0e       	add	r8, r18
    3956:	91 1c       	adc	r9, r1
               error_flag=TWI_Master_Transmit(&TWI1,STA013,reg_addr,1,1,send);
               timeout--;
               //if(timeout==0) PORTLED &= ~(1 << PORTLED_AMBER);
           }while((error_flag!=no_errors)&&(timeout!=0));
        }
     }while((reg_addr!=0xff) && (timeout!=0) && (error_flag==no_errors));
    3958:	11 11       	cpse	r17, r1
    395a:	31 cf       	rjmp	.-414    	; 0x37be <STA013_Init+0x214>
    395c:	50 cf       	rjmp	.-352    	; 0x37fe <STA013_Init+0x254>
        do
        {
            error_flag=TWI_Master_Transmit(&TWI1,STA013,reg_addr,1,1,send);
            timeout--;
            if(timeout==0) Output_Set(&PC,USER_LED);
        }while((error_flag!=no_errors)&&(timeout!=0));
    395e:	81 11       	cpse	r24, r1
    3960:	78 cf       	rjmp	.-272    	; 0x3852 <STA013_Init+0x2a8>
    3962:	8c cf       	rjmp	.-232    	; 0x387c <STA013_Init+0x2d2>
	  Copy_String_to_Buffer(Config_Complete_prnt,0,prnt_bffr);
      //sprintf(prnt_bffr, "Configuration Complete\n\r");
	  UART_Transmit_String(&UART1,0,prnt_bffr);
   }   
   //LED1_Control(0);
   Output_Clear(&PB,LED1);
    3964:	68 e0       	ldi	r22, 0x08	; 8
    3966:	83 e2       	ldi	r24, 0x23	; 35
    3968:	90 e0       	ldi	r25, 0x00	; 0
    396a:	0e 94 d2 09 	call	0x13a4	; 0x13a4 <Output_Clear>
   //LED2_Control(0);
   Output_Clear(&PE,LED2);
    396e:	60 e1       	ldi	r22, 0x10	; 16
    3970:	8c e2       	ldi	r24, 0x2C	; 44
    3972:	90 e0       	ldi	r25, 0x00	; 0
    3974:	0e 94 d2 09 	call	0x13a4	; 0x13a4 <Output_Clear>
   //LED3_Control(0); 
   Output_Clear(&PA,LED3);  
    3978:	60 e8       	ldi	r22, 0x80	; 128
    397a:	80 e2       	ldi	r24, 0x20	; 32
    397c:	90 e0       	ldi	r25, 0x00	; 0
    397e:	0e 94 d2 09 	call	0x13a4	; 0x13a4 <Output_Clear>
   return error_flag;
}
    3982:	81 2f       	mov	r24, r17
    3984:	0f 90       	pop	r0
    3986:	0f 90       	pop	r0
    3988:	0f 90       	pop	r0
    398a:	0f 90       	pop	r0
    398c:	df 91       	pop	r29
    398e:	cf 91       	pop	r28
    3990:	1f 91       	pop	r17
    3992:	0f 91       	pop	r16
    3994:	ff 90       	pop	r15
    3996:	ef 90       	pop	r14
    3998:	df 90       	pop	r13
    399a:	cf 90       	pop	r12
    399c:	bf 90       	pop	r11
    399e:	af 90       	pop	r10
    39a0:	9f 90       	pop	r9
    39a2:	8f 90       	pop	r8
    39a4:	7f 90       	pop	r7
    39a6:	6f 90       	pop	r6
    39a8:	5f 90       	pop	r5
    39aa:	4f 90       	pop	r4
    39ac:	3f 90       	pop	r3
    39ae:	2f 90       	pop	r2
    39b0:	08 95       	ret

000039b2 <Timer2_Interrupt_Init>:

uint8_t Timer2_Interrupt_Init(uint8_t interval_ms)
{
	uint8_t OCR_value,error_flag;
	
	OCR_value = (uint8_t)((((interval_ms*F_CPU)+(F_DIV*512000UL))/(F_DIV*1024000UL))-1);
    39b2:	a8 2f       	mov	r26, r24
    39b4:	b0 e0       	ldi	r27, 0x00	; 0
    39b6:	20 e0       	ldi	r18, 0x00	; 0
    39b8:	34 e2       	ldi	r19, 0x24	; 36
    39ba:	44 ef       	ldi	r20, 0xF4	; 244
    39bc:	50 e0       	ldi	r21, 0x00	; 0
    39be:	0e 94 be 1d 	call	0x3b7c	; 0x3b7c <__muluhisi3>
    39c2:	70 53       	subi	r23, 0x30	; 48
    39c4:	88 4f       	sbci	r24, 0xF8	; 248
    39c6:	9f 4f       	sbci	r25, 0xFF	; 255
    39c8:	20 e0       	ldi	r18, 0x00	; 0
    39ca:	30 ea       	ldi	r19, 0xA0	; 160
    39cc:	4f e0       	ldi	r20, 0x0F	; 15
    39ce:	50 e0       	ldi	r21, 0x00	; 0
    39d0:	0e 94 9c 1d 	call	0x3b38	; 0x3b38 <__udivmodsi4>
    39d4:	21 50       	subi	r18, 0x01	; 1
	
	if(OCR_value<=255)
	{
		error_flag=0;    // no errors;
		OCR2A=OCR_value;
    39d6:	20 93 b3 00 	sts	0x00B3, r18	; 0x8000b3 <__DATA_REGION_ORIGIN__+0x53>
		TIMSK2=0x02;      // Enables OCRA match interrupt
    39da:	82 e0       	ldi	r24, 0x02	; 2
    39dc:	80 93 70 00 	sts	0x0070, r24	; 0x800070 <__DATA_REGION_ORIGIN__+0x10>
		TCCR2A=0x02;      // Auto-Reload counter on match with OCRA
    39e0:	80 93 b0 00 	sts	0x00B0, r24	; 0x8000b0 <__DATA_REGION_ORIGIN__+0x50>
		TCCR2B=0x07;      // Starts the counter with a prescale of 1024
    39e4:	87 e0       	ldi	r24, 0x07	; 7
    39e6:	80 93 b1 00 	sts	0x00B1, r24	; 0x8000b1 <__DATA_REGION_ORIGIN__+0x51>
	{
		error_flag=0x80;  // interval too big
	}
	
	return error_flag;	
}
    39ea:	80 e0       	ldi	r24, 0x00	; 0
    39ec:	08 95       	ret

000039ee <UART_init>:




void UART_init (uint8_t volatile * UART_addr, uint16_t Baud_Rate)
{
    39ee:	cf 93       	push	r28
    39f0:	df 93       	push	r29
    39f2:	ec 01       	movw	r28, r24
	uint16_t Baud_Rate_Reload;
	Baud_Rate_Reload = (uint16_t)(((F_CPU/F_DIV)/(8UL*(2-U2X_bit)*Baud_Rate))-1);
    39f4:	cb 01       	movw	r24, r22
    39f6:	a0 e0       	ldi	r26, 0x00	; 0
    39f8:	b0 e0       	ldi	r27, 0x00	; 0
    39fa:	88 0f       	add	r24, r24
    39fc:	99 1f       	adc	r25, r25
    39fe:	aa 1f       	adc	r26, r26
    3a00:	bb 1f       	adc	r27, r27
    3a02:	88 0f       	add	r24, r24
    3a04:	99 1f       	adc	r25, r25
    3a06:	aa 1f       	adc	r26, r26
    3a08:	bb 1f       	adc	r27, r27
    3a0a:	9c 01       	movw	r18, r24
    3a0c:	ad 01       	movw	r20, r26
    3a0e:	22 0f       	add	r18, r18
    3a10:	33 1f       	adc	r19, r19
    3a12:	44 1f       	adc	r20, r20
    3a14:	55 1f       	adc	r21, r21
    3a16:	60 e0       	ldi	r22, 0x00	; 0
    3a18:	74 e2       	ldi	r23, 0x24	; 36
    3a1a:	84 ef       	ldi	r24, 0xF4	; 244
    3a1c:	90 e0       	ldi	r25, 0x00	; 0
    3a1e:	0e 94 9c 1d 	call	0x3b38	; 0x3b38 <__udivmodsi4>
    3a22:	21 50       	subi	r18, 0x01	; 1
    3a24:	31 09       	sbc	r19, r1
	
	*(UART_addr+UBBRH) = (Baud_Rate_Reload / 256);
    3a26:	3d 83       	std	Y+5, r19	; 0x05
	*(UART_addr+UBBRL) = (Baud_Rate_Reload % 256);
    3a28:	2c 83       	std	Y+4, r18	; 0x04
		
	*(UART_addr+UCSRA) = U2X_bit<<1;
    3a2a:	82 e0       	ldi	r24, 0x02	; 2
    3a2c:	88 83       	st	Y, r24
	*(UART_addr+UCSRC) = Asynchronous|No_Parity|One_Stop_Bit|Eight_Data_bits;
    3a2e:	86 e0       	ldi	r24, 0x06	; 6
    3a30:	8a 83       	std	Y+2, r24	; 0x02
	*(UART_addr+UCSRB) = RX_enable|TX_enable;
    3a32:	88 e1       	ldi	r24, 0x18	; 24
    3a34:	89 83       	std	Y+1, r24	; 0x01
}
    3a36:	df 91       	pop	r29
    3a38:	cf 91       	pop	r28
    3a3a:	08 95       	ret

00003a3c <UART_Transmit>:

int8_t UART_Transmit(uint8_t volatile * UART_addr, int8_t c)
{
    3a3c:	fc 01       	movw	r30, r24
	uint8_t status;
	do
	{
		status=*(UART_addr+UCSRA);
    3a3e:	90 81       	ld	r25, Z
	} while ((status & (1 << UDRE))!=(1 << UDRE));
    3a40:	95 ff       	sbrs	r25, 5
    3a42:	fd cf       	rjmp	.-6      	; 0x3a3e <UART_Transmit+0x2>
	*(UART_addr+UDR) = c;
    3a44:	66 83       	std	Z+6, r22	; 0x06
	return 0;
}
    3a46:	80 e0       	ldi	r24, 0x00	; 0
    3a48:	08 95       	ret

00003a4a <UART_Receive>:


uint8_t UART_Receive(uint8_t volatile * UART_addr)
{
    3a4a:	fc 01       	movw	r30, r24
	uint8_t status;
	do 
	{
		status=*(UART_addr+UCSRA);
    3a4c:	90 81       	ld	r25, Z
	} while ((status & (1 << RXC))!=(1 << RXC));
    3a4e:	99 23       	and	r25, r25
    3a50:	ec f7       	brge	.-6      	; 0x3a4c <UART_Receive+0x2>
	return *(UART_addr+UDR);  // return the value in the receive buffer
    3a52:	86 81       	ldd	r24, Z+6	; 0x06
}
    3a54:	08 95       	ret

00003a56 <Export_print_buffer>:
//**** Used to make the global print_buffer available to other source code files *****//
uint8_t * Export_print_buffer(void)
{
	
	return print_buffer;
}
    3a56:	81 ef       	ldi	r24, 0xF1	; 241
    3a58:	91 e0       	ldi	r25, 0x01	; 1
    3a5a:	08 95       	ret

00003a5c <Copy_String_to_Buffer>:
//***** If num_bytes!=0, then the specified number of bytes is copied. ****// 
uint8_t Copy_String_to_Buffer(const int8_t * flash_string, uint8_t num_bytes, uint8_t * buffer_p)
{
	uint8_t index;
	uint8_t value;
	if(num_bytes==0)
    3a5c:	61 11       	cpse	r22, r1
    3a5e:	0e c0       	rjmp	.+28     	; 0x3a7c <Copy_String_to_Buffer+0x20>
	{
		index=0;
		do
		{
			value=pgm_read_byte(&flash_string[index]);
    3a60:	26 2f       	mov	r18, r22
    3a62:	30 e0       	ldi	r19, 0x00	; 0
    3a64:	fc 01       	movw	r30, r24
    3a66:	e2 0f       	add	r30, r18
    3a68:	f3 1f       	adc	r31, r19
    3a6a:	e4 91       	lpm	r30, Z
			buffer_p[index]=value;
    3a6c:	da 01       	movw	r26, r20
    3a6e:	a2 0f       	add	r26, r18
    3a70:	b3 1f       	adc	r27, r19
    3a72:	ec 93       	st	X, r30
			index++;
    3a74:	6f 5f       	subi	r22, 0xFF	; 255
		} while (value!=0);
    3a76:	e1 11       	cpse	r30, r1
    3a78:	f3 cf       	rjmp	.-26     	; 0x3a60 <Copy_String_to_Buffer+0x4>
    3a7a:	0e c0       	rjmp	.+28     	; 0x3a98 <Copy_String_to_Buffer+0x3c>
    3a7c:	fc 01       	movw	r30, r24
    3a7e:	da 01       	movw	r26, r20
    3a80:	8f ef       	ldi	r24, 0xFF	; 255
    3a82:	86 0f       	add	r24, r22
    3a84:	90 e0       	ldi	r25, 0x00	; 0
    3a86:	01 96       	adiw	r24, 0x01	; 1
    3a88:	48 0f       	add	r20, r24
    3a8a:	59 1f       	adc	r21, r25
	}
	else
	{
		for(index=0;index<num_bytes;index++)
		{
			value=pgm_read_byte(&flash_string[index]);
    3a8c:	84 91       	lpm	r24, Z
			buffer_p[index]=value;
    3a8e:	8d 93       	st	X+, r24
    3a90:	31 96       	adiw	r30, 0x01	; 1
			index++;
		} while (value!=0);
	}
	else
	{
		for(index=0;index<num_bytes;index++)
    3a92:	a4 17       	cp	r26, r20
    3a94:	b5 07       	cpc	r27, r21
    3a96:	d1 f7       	brne	.-12     	; 0x3a8c <Copy_String_to_Buffer+0x30>
			buffer_p[index]=value;
		}
		index=num_bytes;
	}
	return index;
}
    3a98:	86 2f       	mov	r24, r22
    3a9a:	08 95       	ret

00003a9c <UART_Transmit_String>:

//***** Transmits a string of unsigned bytes stored in an SRAM array (print buffer) using the specified UART.  ****//
//***** If num_bytes==0, then the transmitting continues until a NULL termination is found. ****//
//***** If num_bytes!=0, then the specified number of bytes is transmitted. ****//
void UART_Transmit_String(uint8_t volatile * UART_addr, uint8_t num_bytes, uint8_t * string_name)
{
    3a9c:	cf 92       	push	r12
    3a9e:	df 92       	push	r13
    3aa0:	ef 92       	push	r14
    3aa2:	ff 92       	push	r15
    3aa4:	0f 93       	push	r16
    3aa6:	1f 93       	push	r17
    3aa8:	cf 93       	push	r28
    3aaa:	df 93       	push	r29
    3aac:	7c 01       	movw	r14, r24
    3aae:	8a 01       	movw	r16, r20
	int8_t temp8,index;
	if(num_bytes==0)
    3ab0:	66 23       	and	r22, r22
    3ab2:	31 f0       	breq	.+12     	; 0x3ac0 <UART_Transmit_String+0x24>
			temp8=*string_name;
		}
	}
	else
	{
		for(index=0;index<num_bytes;index++)
    3ab4:	c6 2e       	mov	r12, r22
    3ab6:	d1 2c       	mov	r13, r1
    3ab8:	1c 14       	cp	r1, r12
    3aba:	1d 04       	cpc	r1, r13
    3abc:	74 f0       	brlt	.+28     	; 0x3ada <UART_Transmit_String+0x3e>
    3abe:	1f c0       	rjmp	.+62     	; 0x3afe <UART_Transmit_String+0x62>
void UART_Transmit_String(uint8_t volatile * UART_addr, uint8_t num_bytes, uint8_t * string_name)
{
	int8_t temp8,index;
	if(num_bytes==0)
	{
		temp8=*string_name;
    3ac0:	fa 01       	movw	r30, r20
    3ac2:	60 81       	ld	r22, Z
		while (temp8!=0)
    3ac4:	66 23       	and	r22, r22
    3ac6:	d9 f0       	breq	.+54     	; 0x3afe <UART_Transmit_String+0x62>
    3ac8:	ea 01       	movw	r28, r20
    3aca:	21 96       	adiw	r28, 0x01	; 1
		{
			UART_Transmit(UART_addr, temp8);
    3acc:	c7 01       	movw	r24, r14
    3ace:	0e 94 1e 1d 	call	0x3a3c	; 0x3a3c <UART_Transmit>
			string_name++;
			temp8=*string_name;
    3ad2:	69 91       	ld	r22, Y+
{
	int8_t temp8,index;
	if(num_bytes==0)
	{
		temp8=*string_name;
		while (temp8!=0)
    3ad4:	61 11       	cpse	r22, r1
    3ad6:	fa cf       	rjmp	.-12     	; 0x3acc <UART_Transmit_String+0x30>
    3ad8:	12 c0       	rjmp	.+36     	; 0x3afe <UART_Transmit_String+0x62>
			temp8=*string_name;
		}
	}
	else
	{
		for(index=0;index<num_bytes;index++)
    3ada:	c0 e0       	ldi	r28, 0x00	; 0
		{
			UART_Transmit(UART_addr, string_name[index]);
    3adc:	f8 01       	movw	r30, r16
    3ade:	ec 0f       	add	r30, r28
    3ae0:	f1 1d       	adc	r31, r1
    3ae2:	c7 fd       	sbrc	r28, 7
    3ae4:	fa 95       	dec	r31
    3ae6:	60 81       	ld	r22, Z
    3ae8:	c7 01       	movw	r24, r14
    3aea:	0e 94 1e 1d 	call	0x3a3c	; 0x3a3c <UART_Transmit>
    3aee:	cf 5f       	subi	r28, 0xFF	; 255
			temp8=*string_name;
		}
	}
	else
	{
		for(index=0;index<num_bytes;index++)
    3af0:	8c 2f       	mov	r24, r28
    3af2:	0c 2e       	mov	r0, r28
    3af4:	00 0c       	add	r0, r0
    3af6:	99 0b       	sbc	r25, r25
    3af8:	8c 15       	cp	r24, r12
    3afa:	9d 05       	cpc	r25, r13
    3afc:	7c f3       	brlt	.-34     	; 0x3adc <UART_Transmit_String+0x40>
		{
			UART_Transmit(UART_addr, string_name[index]);
		}
	}
}
    3afe:	df 91       	pop	r29
    3b00:	cf 91       	pop	r28
    3b02:	1f 91       	pop	r17
    3b04:	0f 91       	pop	r16
    3b06:	ff 90       	pop	r15
    3b08:	ef 90       	pop	r14
    3b0a:	df 90       	pop	r13
    3b0c:	cf 90       	pop	r12
    3b0e:	08 95       	ret

00003b10 <__udivmodhi4>:
    3b10:	aa 1b       	sub	r26, r26
    3b12:	bb 1b       	sub	r27, r27
    3b14:	51 e1       	ldi	r21, 0x11	; 17
    3b16:	07 c0       	rjmp	.+14     	; 0x3b26 <__udivmodhi4_ep>

00003b18 <__udivmodhi4_loop>:
    3b18:	aa 1f       	adc	r26, r26
    3b1a:	bb 1f       	adc	r27, r27
    3b1c:	a6 17       	cp	r26, r22
    3b1e:	b7 07       	cpc	r27, r23
    3b20:	10 f0       	brcs	.+4      	; 0x3b26 <__udivmodhi4_ep>
    3b22:	a6 1b       	sub	r26, r22
    3b24:	b7 0b       	sbc	r27, r23

00003b26 <__udivmodhi4_ep>:
    3b26:	88 1f       	adc	r24, r24
    3b28:	99 1f       	adc	r25, r25
    3b2a:	5a 95       	dec	r21
    3b2c:	a9 f7       	brne	.-22     	; 0x3b18 <__udivmodhi4_loop>
    3b2e:	80 95       	com	r24
    3b30:	90 95       	com	r25
    3b32:	bc 01       	movw	r22, r24
    3b34:	cd 01       	movw	r24, r26
    3b36:	08 95       	ret

00003b38 <__udivmodsi4>:
    3b38:	a1 e2       	ldi	r26, 0x21	; 33
    3b3a:	1a 2e       	mov	r1, r26
    3b3c:	aa 1b       	sub	r26, r26
    3b3e:	bb 1b       	sub	r27, r27
    3b40:	fd 01       	movw	r30, r26
    3b42:	0d c0       	rjmp	.+26     	; 0x3b5e <__udivmodsi4_ep>

00003b44 <__udivmodsi4_loop>:
    3b44:	aa 1f       	adc	r26, r26
    3b46:	bb 1f       	adc	r27, r27
    3b48:	ee 1f       	adc	r30, r30
    3b4a:	ff 1f       	adc	r31, r31
    3b4c:	a2 17       	cp	r26, r18
    3b4e:	b3 07       	cpc	r27, r19
    3b50:	e4 07       	cpc	r30, r20
    3b52:	f5 07       	cpc	r31, r21
    3b54:	20 f0       	brcs	.+8      	; 0x3b5e <__udivmodsi4_ep>
    3b56:	a2 1b       	sub	r26, r18
    3b58:	b3 0b       	sbc	r27, r19
    3b5a:	e4 0b       	sbc	r30, r20
    3b5c:	f5 0b       	sbc	r31, r21

00003b5e <__udivmodsi4_ep>:
    3b5e:	66 1f       	adc	r22, r22
    3b60:	77 1f       	adc	r23, r23
    3b62:	88 1f       	adc	r24, r24
    3b64:	99 1f       	adc	r25, r25
    3b66:	1a 94       	dec	r1
    3b68:	69 f7       	brne	.-38     	; 0x3b44 <__udivmodsi4_loop>
    3b6a:	60 95       	com	r22
    3b6c:	70 95       	com	r23
    3b6e:	80 95       	com	r24
    3b70:	90 95       	com	r25
    3b72:	9b 01       	movw	r18, r22
    3b74:	ac 01       	movw	r20, r24
    3b76:	bd 01       	movw	r22, r26
    3b78:	cf 01       	movw	r24, r30
    3b7a:	08 95       	ret

00003b7c <__muluhisi3>:
    3b7c:	0e 94 c9 1d 	call	0x3b92	; 0x3b92 <__umulhisi3>
    3b80:	a5 9f       	mul	r26, r21
    3b82:	90 0d       	add	r25, r0
    3b84:	b4 9f       	mul	r27, r20
    3b86:	90 0d       	add	r25, r0
    3b88:	a4 9f       	mul	r26, r20
    3b8a:	80 0d       	add	r24, r0
    3b8c:	91 1d       	adc	r25, r1
    3b8e:	11 24       	eor	r1, r1
    3b90:	08 95       	ret

00003b92 <__umulhisi3>:
    3b92:	a2 9f       	mul	r26, r18
    3b94:	b0 01       	movw	r22, r0
    3b96:	b3 9f       	mul	r27, r19
    3b98:	c0 01       	movw	r24, r0
    3b9a:	a3 9f       	mul	r26, r19
    3b9c:	70 0d       	add	r23, r0
    3b9e:	81 1d       	adc	r24, r1
    3ba0:	11 24       	eor	r1, r1
    3ba2:	91 1d       	adc	r25, r1
    3ba4:	b2 9f       	mul	r27, r18
    3ba6:	70 0d       	add	r23, r0
    3ba8:	81 1d       	adc	r24, r1
    3baa:	11 24       	eor	r1, r1
    3bac:	91 1d       	adc	r25, r1
    3bae:	08 95       	ret

00003bb0 <atol>:
    3bb0:	1f 93       	push	r17
    3bb2:	fc 01       	movw	r30, r24
    3bb4:	99 27       	eor	r25, r25
    3bb6:	88 27       	eor	r24, r24
    3bb8:	bc 01       	movw	r22, r24
    3bba:	e8 94       	clt
    3bbc:	11 91       	ld	r17, Z+
    3bbe:	10 32       	cpi	r17, 0x20	; 32
    3bc0:	e9 f3       	breq	.-6      	; 0x3bbc <atol+0xc>
    3bc2:	19 30       	cpi	r17, 0x09	; 9
    3bc4:	10 f0       	brcs	.+4      	; 0x3bca <atol+0x1a>
    3bc6:	1e 30       	cpi	r17, 0x0E	; 14
    3bc8:	c8 f3       	brcs	.-14     	; 0x3bbc <atol+0xc>
    3bca:	1b 32       	cpi	r17, 0x2B	; 43
    3bcc:	51 f0       	breq	.+20     	; 0x3be2 <atol+0x32>
    3bce:	1d 32       	cpi	r17, 0x2D	; 45
    3bd0:	49 f4       	brne	.+18     	; 0x3be4 <atol+0x34>
    3bd2:	68 94       	set
    3bd4:	06 c0       	rjmp	.+12     	; 0x3be2 <atol+0x32>
    3bd6:	0e 94 ff 1d 	call	0x3bfe	; 0x3bfe <__mulsi_const_10>
    3bda:	61 0f       	add	r22, r17
    3bdc:	71 1d       	adc	r23, r1
    3bde:	81 1d       	adc	r24, r1
    3be0:	91 1d       	adc	r25, r1
    3be2:	11 91       	ld	r17, Z+
    3be4:	10 53       	subi	r17, 0x30	; 48
    3be6:	1a 30       	cpi	r17, 0x0A	; 10
    3be8:	b0 f3       	brcs	.-20     	; 0x3bd6 <atol+0x26>
    3bea:	3e f4       	brtc	.+14     	; 0x3bfa <atol+0x4a>
    3bec:	90 95       	com	r25
    3bee:	80 95       	com	r24
    3bf0:	70 95       	com	r23
    3bf2:	61 95       	neg	r22
    3bf4:	7f 4f       	sbci	r23, 0xFF	; 255
    3bf6:	8f 4f       	sbci	r24, 0xFF	; 255
    3bf8:	9f 4f       	sbci	r25, 0xFF	; 255
    3bfa:	1f 91       	pop	r17
    3bfc:	08 95       	ret

00003bfe <__mulsi_const_10>:
    3bfe:	59 2f       	mov	r21, r25
    3c00:	48 2f       	mov	r20, r24
    3c02:	37 2f       	mov	r19, r23
    3c04:	26 2f       	mov	r18, r22
    3c06:	66 0f       	add	r22, r22
    3c08:	77 1f       	adc	r23, r23
    3c0a:	88 1f       	adc	r24, r24
    3c0c:	99 1f       	adc	r25, r25
    3c0e:	66 0f       	add	r22, r22
    3c10:	77 1f       	adc	r23, r23
    3c12:	88 1f       	adc	r24, r24
    3c14:	99 1f       	adc	r25, r25
    3c16:	62 0f       	add	r22, r18
    3c18:	73 1f       	adc	r23, r19
    3c1a:	84 1f       	adc	r24, r20
    3c1c:	95 1f       	adc	r25, r21
    3c1e:	66 0f       	add	r22, r22
    3c20:	77 1f       	adc	r23, r23
    3c22:	88 1f       	adc	r24, r24
    3c24:	99 1f       	adc	r25, r25
    3c26:	08 95       	ret

00003c28 <sprintf>:
    3c28:	ae e0       	ldi	r26, 0x0E	; 14
    3c2a:	b0 e0       	ldi	r27, 0x00	; 0
    3c2c:	ea e1       	ldi	r30, 0x1A	; 26
    3c2e:	fe e1       	ldi	r31, 0x1E	; 30
    3c30:	0c 94 d5 20 	jmp	0x41aa	; 0x41aa <__prologue_saves__+0x1c>
    3c34:	0d 89       	ldd	r16, Y+21	; 0x15
    3c36:	1e 89       	ldd	r17, Y+22	; 0x16
    3c38:	86 e0       	ldi	r24, 0x06	; 6
    3c3a:	8c 83       	std	Y+4, r24	; 0x04
    3c3c:	1a 83       	std	Y+2, r17	; 0x02
    3c3e:	09 83       	std	Y+1, r16	; 0x01
    3c40:	8f ef       	ldi	r24, 0xFF	; 255
    3c42:	9f e7       	ldi	r25, 0x7F	; 127
    3c44:	9e 83       	std	Y+6, r25	; 0x06
    3c46:	8d 83       	std	Y+5, r24	; 0x05
    3c48:	ae 01       	movw	r20, r28
    3c4a:	47 5e       	subi	r20, 0xE7	; 231
    3c4c:	5f 4f       	sbci	r21, 0xFF	; 255
    3c4e:	6f 89       	ldd	r22, Y+23	; 0x17
    3c50:	78 8d       	ldd	r23, Y+24	; 0x18
    3c52:	ce 01       	movw	r24, r28
    3c54:	01 96       	adiw	r24, 0x01	; 1
    3c56:	0e 94 36 1e 	call	0x3c6c	; 0x3c6c <vfprintf>
    3c5a:	ef 81       	ldd	r30, Y+7	; 0x07
    3c5c:	f8 85       	ldd	r31, Y+8	; 0x08
    3c5e:	e0 0f       	add	r30, r16
    3c60:	f1 1f       	adc	r31, r17
    3c62:	10 82       	st	Z, r1
    3c64:	2e 96       	adiw	r28, 0x0e	; 14
    3c66:	e4 e0       	ldi	r30, 0x04	; 4
    3c68:	0c 94 f1 20 	jmp	0x41e2	; 0x41e2 <__epilogue_restores__+0x1c>

00003c6c <vfprintf>:
    3c6c:	ab e0       	ldi	r26, 0x0B	; 11
    3c6e:	b0 e0       	ldi	r27, 0x00	; 0
    3c70:	ec e3       	ldi	r30, 0x3C	; 60
    3c72:	fe e1       	ldi	r31, 0x1E	; 30
    3c74:	0c 94 c7 20 	jmp	0x418e	; 0x418e <__prologue_saves__>
    3c78:	6c 01       	movw	r12, r24
    3c7a:	7b 01       	movw	r14, r22
    3c7c:	8a 01       	movw	r16, r20
    3c7e:	fc 01       	movw	r30, r24
    3c80:	17 82       	std	Z+7, r1	; 0x07
    3c82:	16 82       	std	Z+6, r1	; 0x06
    3c84:	83 81       	ldd	r24, Z+3	; 0x03
    3c86:	81 ff       	sbrs	r24, 1
    3c88:	cc c1       	rjmp	.+920    	; 0x4022 <vfprintf+0x3b6>
    3c8a:	ce 01       	movw	r24, r28
    3c8c:	01 96       	adiw	r24, 0x01	; 1
    3c8e:	3c 01       	movw	r6, r24
    3c90:	f6 01       	movw	r30, r12
    3c92:	93 81       	ldd	r25, Z+3	; 0x03
    3c94:	f7 01       	movw	r30, r14
    3c96:	93 fd       	sbrc	r25, 3
    3c98:	85 91       	lpm	r24, Z+
    3c9a:	93 ff       	sbrs	r25, 3
    3c9c:	81 91       	ld	r24, Z+
    3c9e:	7f 01       	movw	r14, r30
    3ca0:	88 23       	and	r24, r24
    3ca2:	09 f4       	brne	.+2      	; 0x3ca6 <vfprintf+0x3a>
    3ca4:	ba c1       	rjmp	.+884    	; 0x401a <vfprintf+0x3ae>
    3ca6:	85 32       	cpi	r24, 0x25	; 37
    3ca8:	39 f4       	brne	.+14     	; 0x3cb8 <vfprintf+0x4c>
    3caa:	93 fd       	sbrc	r25, 3
    3cac:	85 91       	lpm	r24, Z+
    3cae:	93 ff       	sbrs	r25, 3
    3cb0:	81 91       	ld	r24, Z+
    3cb2:	7f 01       	movw	r14, r30
    3cb4:	85 32       	cpi	r24, 0x25	; 37
    3cb6:	29 f4       	brne	.+10     	; 0x3cc2 <vfprintf+0x56>
    3cb8:	b6 01       	movw	r22, r12
    3cba:	90 e0       	ldi	r25, 0x00	; 0
    3cbc:	0e 94 2d 20 	call	0x405a	; 0x405a <fputc>
    3cc0:	e7 cf       	rjmp	.-50     	; 0x3c90 <vfprintf+0x24>
    3cc2:	91 2c       	mov	r9, r1
    3cc4:	21 2c       	mov	r2, r1
    3cc6:	31 2c       	mov	r3, r1
    3cc8:	ff e1       	ldi	r31, 0x1F	; 31
    3cca:	f3 15       	cp	r31, r3
    3ccc:	d8 f0       	brcs	.+54     	; 0x3d04 <vfprintf+0x98>
    3cce:	8b 32       	cpi	r24, 0x2B	; 43
    3cd0:	79 f0       	breq	.+30     	; 0x3cf0 <vfprintf+0x84>
    3cd2:	38 f4       	brcc	.+14     	; 0x3ce2 <vfprintf+0x76>
    3cd4:	80 32       	cpi	r24, 0x20	; 32
    3cd6:	79 f0       	breq	.+30     	; 0x3cf6 <vfprintf+0x8a>
    3cd8:	83 32       	cpi	r24, 0x23	; 35
    3cda:	a1 f4       	brne	.+40     	; 0x3d04 <vfprintf+0x98>
    3cdc:	23 2d       	mov	r18, r3
    3cde:	20 61       	ori	r18, 0x10	; 16
    3ce0:	1d c0       	rjmp	.+58     	; 0x3d1c <vfprintf+0xb0>
    3ce2:	8d 32       	cpi	r24, 0x2D	; 45
    3ce4:	61 f0       	breq	.+24     	; 0x3cfe <vfprintf+0x92>
    3ce6:	80 33       	cpi	r24, 0x30	; 48
    3ce8:	69 f4       	brne	.+26     	; 0x3d04 <vfprintf+0x98>
    3cea:	23 2d       	mov	r18, r3
    3cec:	21 60       	ori	r18, 0x01	; 1
    3cee:	16 c0       	rjmp	.+44     	; 0x3d1c <vfprintf+0xb0>
    3cf0:	83 2d       	mov	r24, r3
    3cf2:	82 60       	ori	r24, 0x02	; 2
    3cf4:	38 2e       	mov	r3, r24
    3cf6:	e3 2d       	mov	r30, r3
    3cf8:	e4 60       	ori	r30, 0x04	; 4
    3cfa:	3e 2e       	mov	r3, r30
    3cfc:	2a c0       	rjmp	.+84     	; 0x3d52 <vfprintf+0xe6>
    3cfe:	f3 2d       	mov	r31, r3
    3d00:	f8 60       	ori	r31, 0x08	; 8
    3d02:	1d c0       	rjmp	.+58     	; 0x3d3e <vfprintf+0xd2>
    3d04:	37 fc       	sbrc	r3, 7
    3d06:	2d c0       	rjmp	.+90     	; 0x3d62 <vfprintf+0xf6>
    3d08:	20 ed       	ldi	r18, 0xD0	; 208
    3d0a:	28 0f       	add	r18, r24
    3d0c:	2a 30       	cpi	r18, 0x0A	; 10
    3d0e:	40 f0       	brcs	.+16     	; 0x3d20 <vfprintf+0xb4>
    3d10:	8e 32       	cpi	r24, 0x2E	; 46
    3d12:	b9 f4       	brne	.+46     	; 0x3d42 <vfprintf+0xd6>
    3d14:	36 fc       	sbrc	r3, 6
    3d16:	81 c1       	rjmp	.+770    	; 0x401a <vfprintf+0x3ae>
    3d18:	23 2d       	mov	r18, r3
    3d1a:	20 64       	ori	r18, 0x40	; 64
    3d1c:	32 2e       	mov	r3, r18
    3d1e:	19 c0       	rjmp	.+50     	; 0x3d52 <vfprintf+0xe6>
    3d20:	36 fe       	sbrs	r3, 6
    3d22:	06 c0       	rjmp	.+12     	; 0x3d30 <vfprintf+0xc4>
    3d24:	8a e0       	ldi	r24, 0x0A	; 10
    3d26:	98 9e       	mul	r9, r24
    3d28:	20 0d       	add	r18, r0
    3d2a:	11 24       	eor	r1, r1
    3d2c:	92 2e       	mov	r9, r18
    3d2e:	11 c0       	rjmp	.+34     	; 0x3d52 <vfprintf+0xe6>
    3d30:	ea e0       	ldi	r30, 0x0A	; 10
    3d32:	2e 9e       	mul	r2, r30
    3d34:	20 0d       	add	r18, r0
    3d36:	11 24       	eor	r1, r1
    3d38:	22 2e       	mov	r2, r18
    3d3a:	f3 2d       	mov	r31, r3
    3d3c:	f0 62       	ori	r31, 0x20	; 32
    3d3e:	3f 2e       	mov	r3, r31
    3d40:	08 c0       	rjmp	.+16     	; 0x3d52 <vfprintf+0xe6>
    3d42:	8c 36       	cpi	r24, 0x6C	; 108
    3d44:	21 f4       	brne	.+8      	; 0x3d4e <vfprintf+0xe2>
    3d46:	83 2d       	mov	r24, r3
    3d48:	80 68       	ori	r24, 0x80	; 128
    3d4a:	38 2e       	mov	r3, r24
    3d4c:	02 c0       	rjmp	.+4      	; 0x3d52 <vfprintf+0xe6>
    3d4e:	88 36       	cpi	r24, 0x68	; 104
    3d50:	41 f4       	brne	.+16     	; 0x3d62 <vfprintf+0xf6>
    3d52:	f7 01       	movw	r30, r14
    3d54:	93 fd       	sbrc	r25, 3
    3d56:	85 91       	lpm	r24, Z+
    3d58:	93 ff       	sbrs	r25, 3
    3d5a:	81 91       	ld	r24, Z+
    3d5c:	7f 01       	movw	r14, r30
    3d5e:	81 11       	cpse	r24, r1
    3d60:	b3 cf       	rjmp	.-154    	; 0x3cc8 <vfprintf+0x5c>
    3d62:	98 2f       	mov	r25, r24
    3d64:	9f 7d       	andi	r25, 0xDF	; 223
    3d66:	95 54       	subi	r25, 0x45	; 69
    3d68:	93 30       	cpi	r25, 0x03	; 3
    3d6a:	28 f4       	brcc	.+10     	; 0x3d76 <vfprintf+0x10a>
    3d6c:	0c 5f       	subi	r16, 0xFC	; 252
    3d6e:	1f 4f       	sbci	r17, 0xFF	; 255
    3d70:	9f e3       	ldi	r25, 0x3F	; 63
    3d72:	99 83       	std	Y+1, r25	; 0x01
    3d74:	0d c0       	rjmp	.+26     	; 0x3d90 <vfprintf+0x124>
    3d76:	83 36       	cpi	r24, 0x63	; 99
    3d78:	31 f0       	breq	.+12     	; 0x3d86 <vfprintf+0x11a>
    3d7a:	83 37       	cpi	r24, 0x73	; 115
    3d7c:	71 f0       	breq	.+28     	; 0x3d9a <vfprintf+0x12e>
    3d7e:	83 35       	cpi	r24, 0x53	; 83
    3d80:	09 f0       	breq	.+2      	; 0x3d84 <vfprintf+0x118>
    3d82:	59 c0       	rjmp	.+178    	; 0x3e36 <vfprintf+0x1ca>
    3d84:	21 c0       	rjmp	.+66     	; 0x3dc8 <vfprintf+0x15c>
    3d86:	f8 01       	movw	r30, r16
    3d88:	80 81       	ld	r24, Z
    3d8a:	89 83       	std	Y+1, r24	; 0x01
    3d8c:	0e 5f       	subi	r16, 0xFE	; 254
    3d8e:	1f 4f       	sbci	r17, 0xFF	; 255
    3d90:	88 24       	eor	r8, r8
    3d92:	83 94       	inc	r8
    3d94:	91 2c       	mov	r9, r1
    3d96:	53 01       	movw	r10, r6
    3d98:	13 c0       	rjmp	.+38     	; 0x3dc0 <vfprintf+0x154>
    3d9a:	28 01       	movw	r4, r16
    3d9c:	f2 e0       	ldi	r31, 0x02	; 2
    3d9e:	4f 0e       	add	r4, r31
    3da0:	51 1c       	adc	r5, r1
    3da2:	f8 01       	movw	r30, r16
    3da4:	a0 80       	ld	r10, Z
    3da6:	b1 80       	ldd	r11, Z+1	; 0x01
    3da8:	36 fe       	sbrs	r3, 6
    3daa:	03 c0       	rjmp	.+6      	; 0x3db2 <vfprintf+0x146>
    3dac:	69 2d       	mov	r22, r9
    3dae:	70 e0       	ldi	r23, 0x00	; 0
    3db0:	02 c0       	rjmp	.+4      	; 0x3db6 <vfprintf+0x14a>
    3db2:	6f ef       	ldi	r22, 0xFF	; 255
    3db4:	7f ef       	ldi	r23, 0xFF	; 255
    3db6:	c5 01       	movw	r24, r10
    3db8:	0e 94 22 20 	call	0x4044	; 0x4044 <strnlen>
    3dbc:	4c 01       	movw	r8, r24
    3dbe:	82 01       	movw	r16, r4
    3dc0:	f3 2d       	mov	r31, r3
    3dc2:	ff 77       	andi	r31, 0x7F	; 127
    3dc4:	3f 2e       	mov	r3, r31
    3dc6:	16 c0       	rjmp	.+44     	; 0x3df4 <vfprintf+0x188>
    3dc8:	28 01       	movw	r4, r16
    3dca:	22 e0       	ldi	r18, 0x02	; 2
    3dcc:	42 0e       	add	r4, r18
    3dce:	51 1c       	adc	r5, r1
    3dd0:	f8 01       	movw	r30, r16
    3dd2:	a0 80       	ld	r10, Z
    3dd4:	b1 80       	ldd	r11, Z+1	; 0x01
    3dd6:	36 fe       	sbrs	r3, 6
    3dd8:	03 c0       	rjmp	.+6      	; 0x3de0 <vfprintf+0x174>
    3dda:	69 2d       	mov	r22, r9
    3ddc:	70 e0       	ldi	r23, 0x00	; 0
    3dde:	02 c0       	rjmp	.+4      	; 0x3de4 <vfprintf+0x178>
    3de0:	6f ef       	ldi	r22, 0xFF	; 255
    3de2:	7f ef       	ldi	r23, 0xFF	; 255
    3de4:	c5 01       	movw	r24, r10
    3de6:	0e 94 17 20 	call	0x402e	; 0x402e <strnlen_P>
    3dea:	4c 01       	movw	r8, r24
    3dec:	f3 2d       	mov	r31, r3
    3dee:	f0 68       	ori	r31, 0x80	; 128
    3df0:	3f 2e       	mov	r3, r31
    3df2:	82 01       	movw	r16, r4
    3df4:	33 fc       	sbrc	r3, 3
    3df6:	1b c0       	rjmp	.+54     	; 0x3e2e <vfprintf+0x1c2>
    3df8:	82 2d       	mov	r24, r2
    3dfa:	90 e0       	ldi	r25, 0x00	; 0
    3dfc:	88 16       	cp	r8, r24
    3dfe:	99 06       	cpc	r9, r25
    3e00:	b0 f4       	brcc	.+44     	; 0x3e2e <vfprintf+0x1c2>
    3e02:	b6 01       	movw	r22, r12
    3e04:	80 e2       	ldi	r24, 0x20	; 32
    3e06:	90 e0       	ldi	r25, 0x00	; 0
    3e08:	0e 94 2d 20 	call	0x405a	; 0x405a <fputc>
    3e0c:	2a 94       	dec	r2
    3e0e:	f4 cf       	rjmp	.-24     	; 0x3df8 <vfprintf+0x18c>
    3e10:	f5 01       	movw	r30, r10
    3e12:	37 fc       	sbrc	r3, 7
    3e14:	85 91       	lpm	r24, Z+
    3e16:	37 fe       	sbrs	r3, 7
    3e18:	81 91       	ld	r24, Z+
    3e1a:	5f 01       	movw	r10, r30
    3e1c:	b6 01       	movw	r22, r12
    3e1e:	90 e0       	ldi	r25, 0x00	; 0
    3e20:	0e 94 2d 20 	call	0x405a	; 0x405a <fputc>
    3e24:	21 10       	cpse	r2, r1
    3e26:	2a 94       	dec	r2
    3e28:	21 e0       	ldi	r18, 0x01	; 1
    3e2a:	82 1a       	sub	r8, r18
    3e2c:	91 08       	sbc	r9, r1
    3e2e:	81 14       	cp	r8, r1
    3e30:	91 04       	cpc	r9, r1
    3e32:	71 f7       	brne	.-36     	; 0x3e10 <vfprintf+0x1a4>
    3e34:	e8 c0       	rjmp	.+464    	; 0x4006 <vfprintf+0x39a>
    3e36:	84 36       	cpi	r24, 0x64	; 100
    3e38:	11 f0       	breq	.+4      	; 0x3e3e <vfprintf+0x1d2>
    3e3a:	89 36       	cpi	r24, 0x69	; 105
    3e3c:	41 f5       	brne	.+80     	; 0x3e8e <vfprintf+0x222>
    3e3e:	f8 01       	movw	r30, r16
    3e40:	37 fe       	sbrs	r3, 7
    3e42:	07 c0       	rjmp	.+14     	; 0x3e52 <vfprintf+0x1e6>
    3e44:	60 81       	ld	r22, Z
    3e46:	71 81       	ldd	r23, Z+1	; 0x01
    3e48:	82 81       	ldd	r24, Z+2	; 0x02
    3e4a:	93 81       	ldd	r25, Z+3	; 0x03
    3e4c:	0c 5f       	subi	r16, 0xFC	; 252
    3e4e:	1f 4f       	sbci	r17, 0xFF	; 255
    3e50:	08 c0       	rjmp	.+16     	; 0x3e62 <vfprintf+0x1f6>
    3e52:	60 81       	ld	r22, Z
    3e54:	71 81       	ldd	r23, Z+1	; 0x01
    3e56:	07 2e       	mov	r0, r23
    3e58:	00 0c       	add	r0, r0
    3e5a:	88 0b       	sbc	r24, r24
    3e5c:	99 0b       	sbc	r25, r25
    3e5e:	0e 5f       	subi	r16, 0xFE	; 254
    3e60:	1f 4f       	sbci	r17, 0xFF	; 255
    3e62:	f3 2d       	mov	r31, r3
    3e64:	ff 76       	andi	r31, 0x6F	; 111
    3e66:	3f 2e       	mov	r3, r31
    3e68:	97 ff       	sbrs	r25, 7
    3e6a:	09 c0       	rjmp	.+18     	; 0x3e7e <vfprintf+0x212>
    3e6c:	90 95       	com	r25
    3e6e:	80 95       	com	r24
    3e70:	70 95       	com	r23
    3e72:	61 95       	neg	r22
    3e74:	7f 4f       	sbci	r23, 0xFF	; 255
    3e76:	8f 4f       	sbci	r24, 0xFF	; 255
    3e78:	9f 4f       	sbci	r25, 0xFF	; 255
    3e7a:	f0 68       	ori	r31, 0x80	; 128
    3e7c:	3f 2e       	mov	r3, r31
    3e7e:	2a e0       	ldi	r18, 0x0A	; 10
    3e80:	30 e0       	ldi	r19, 0x00	; 0
    3e82:	a3 01       	movw	r20, r6
    3e84:	0e 94 69 20 	call	0x40d2	; 0x40d2 <__ultoa_invert>
    3e88:	88 2e       	mov	r8, r24
    3e8a:	86 18       	sub	r8, r6
    3e8c:	45 c0       	rjmp	.+138    	; 0x3f18 <vfprintf+0x2ac>
    3e8e:	85 37       	cpi	r24, 0x75	; 117
    3e90:	31 f4       	brne	.+12     	; 0x3e9e <vfprintf+0x232>
    3e92:	23 2d       	mov	r18, r3
    3e94:	2f 7e       	andi	r18, 0xEF	; 239
    3e96:	b2 2e       	mov	r11, r18
    3e98:	2a e0       	ldi	r18, 0x0A	; 10
    3e9a:	30 e0       	ldi	r19, 0x00	; 0
    3e9c:	25 c0       	rjmp	.+74     	; 0x3ee8 <vfprintf+0x27c>
    3e9e:	93 2d       	mov	r25, r3
    3ea0:	99 7f       	andi	r25, 0xF9	; 249
    3ea2:	b9 2e       	mov	r11, r25
    3ea4:	8f 36       	cpi	r24, 0x6F	; 111
    3ea6:	c1 f0       	breq	.+48     	; 0x3ed8 <vfprintf+0x26c>
    3ea8:	18 f4       	brcc	.+6      	; 0x3eb0 <vfprintf+0x244>
    3eaa:	88 35       	cpi	r24, 0x58	; 88
    3eac:	79 f0       	breq	.+30     	; 0x3ecc <vfprintf+0x260>
    3eae:	b5 c0       	rjmp	.+362    	; 0x401a <vfprintf+0x3ae>
    3eb0:	80 37       	cpi	r24, 0x70	; 112
    3eb2:	19 f0       	breq	.+6      	; 0x3eba <vfprintf+0x24e>
    3eb4:	88 37       	cpi	r24, 0x78	; 120
    3eb6:	21 f0       	breq	.+8      	; 0x3ec0 <vfprintf+0x254>
    3eb8:	b0 c0       	rjmp	.+352    	; 0x401a <vfprintf+0x3ae>
    3eba:	e9 2f       	mov	r30, r25
    3ebc:	e0 61       	ori	r30, 0x10	; 16
    3ebe:	be 2e       	mov	r11, r30
    3ec0:	b4 fe       	sbrs	r11, 4
    3ec2:	0d c0       	rjmp	.+26     	; 0x3ede <vfprintf+0x272>
    3ec4:	fb 2d       	mov	r31, r11
    3ec6:	f4 60       	ori	r31, 0x04	; 4
    3ec8:	bf 2e       	mov	r11, r31
    3eca:	09 c0       	rjmp	.+18     	; 0x3ede <vfprintf+0x272>
    3ecc:	34 fe       	sbrs	r3, 4
    3ece:	0a c0       	rjmp	.+20     	; 0x3ee4 <vfprintf+0x278>
    3ed0:	29 2f       	mov	r18, r25
    3ed2:	26 60       	ori	r18, 0x06	; 6
    3ed4:	b2 2e       	mov	r11, r18
    3ed6:	06 c0       	rjmp	.+12     	; 0x3ee4 <vfprintf+0x278>
    3ed8:	28 e0       	ldi	r18, 0x08	; 8
    3eda:	30 e0       	ldi	r19, 0x00	; 0
    3edc:	05 c0       	rjmp	.+10     	; 0x3ee8 <vfprintf+0x27c>
    3ede:	20 e1       	ldi	r18, 0x10	; 16
    3ee0:	30 e0       	ldi	r19, 0x00	; 0
    3ee2:	02 c0       	rjmp	.+4      	; 0x3ee8 <vfprintf+0x27c>
    3ee4:	20 e1       	ldi	r18, 0x10	; 16
    3ee6:	32 e0       	ldi	r19, 0x02	; 2
    3ee8:	f8 01       	movw	r30, r16
    3eea:	b7 fe       	sbrs	r11, 7
    3eec:	07 c0       	rjmp	.+14     	; 0x3efc <vfprintf+0x290>
    3eee:	60 81       	ld	r22, Z
    3ef0:	71 81       	ldd	r23, Z+1	; 0x01
    3ef2:	82 81       	ldd	r24, Z+2	; 0x02
    3ef4:	93 81       	ldd	r25, Z+3	; 0x03
    3ef6:	0c 5f       	subi	r16, 0xFC	; 252
    3ef8:	1f 4f       	sbci	r17, 0xFF	; 255
    3efa:	06 c0       	rjmp	.+12     	; 0x3f08 <vfprintf+0x29c>
    3efc:	60 81       	ld	r22, Z
    3efe:	71 81       	ldd	r23, Z+1	; 0x01
    3f00:	80 e0       	ldi	r24, 0x00	; 0
    3f02:	90 e0       	ldi	r25, 0x00	; 0
    3f04:	0e 5f       	subi	r16, 0xFE	; 254
    3f06:	1f 4f       	sbci	r17, 0xFF	; 255
    3f08:	a3 01       	movw	r20, r6
    3f0a:	0e 94 69 20 	call	0x40d2	; 0x40d2 <__ultoa_invert>
    3f0e:	88 2e       	mov	r8, r24
    3f10:	86 18       	sub	r8, r6
    3f12:	fb 2d       	mov	r31, r11
    3f14:	ff 77       	andi	r31, 0x7F	; 127
    3f16:	3f 2e       	mov	r3, r31
    3f18:	36 fe       	sbrs	r3, 6
    3f1a:	0d c0       	rjmp	.+26     	; 0x3f36 <vfprintf+0x2ca>
    3f1c:	23 2d       	mov	r18, r3
    3f1e:	2e 7f       	andi	r18, 0xFE	; 254
    3f20:	a2 2e       	mov	r10, r18
    3f22:	89 14       	cp	r8, r9
    3f24:	58 f4       	brcc	.+22     	; 0x3f3c <vfprintf+0x2d0>
    3f26:	34 fe       	sbrs	r3, 4
    3f28:	0b c0       	rjmp	.+22     	; 0x3f40 <vfprintf+0x2d4>
    3f2a:	32 fc       	sbrc	r3, 2
    3f2c:	09 c0       	rjmp	.+18     	; 0x3f40 <vfprintf+0x2d4>
    3f2e:	83 2d       	mov	r24, r3
    3f30:	8e 7e       	andi	r24, 0xEE	; 238
    3f32:	a8 2e       	mov	r10, r24
    3f34:	05 c0       	rjmp	.+10     	; 0x3f40 <vfprintf+0x2d4>
    3f36:	b8 2c       	mov	r11, r8
    3f38:	a3 2c       	mov	r10, r3
    3f3a:	03 c0       	rjmp	.+6      	; 0x3f42 <vfprintf+0x2d6>
    3f3c:	b8 2c       	mov	r11, r8
    3f3e:	01 c0       	rjmp	.+2      	; 0x3f42 <vfprintf+0x2d6>
    3f40:	b9 2c       	mov	r11, r9
    3f42:	a4 fe       	sbrs	r10, 4
    3f44:	0f c0       	rjmp	.+30     	; 0x3f64 <vfprintf+0x2f8>
    3f46:	fe 01       	movw	r30, r28
    3f48:	e8 0d       	add	r30, r8
    3f4a:	f1 1d       	adc	r31, r1
    3f4c:	80 81       	ld	r24, Z
    3f4e:	80 33       	cpi	r24, 0x30	; 48
    3f50:	21 f4       	brne	.+8      	; 0x3f5a <vfprintf+0x2ee>
    3f52:	9a 2d       	mov	r25, r10
    3f54:	99 7e       	andi	r25, 0xE9	; 233
    3f56:	a9 2e       	mov	r10, r25
    3f58:	09 c0       	rjmp	.+18     	; 0x3f6c <vfprintf+0x300>
    3f5a:	a2 fe       	sbrs	r10, 2
    3f5c:	06 c0       	rjmp	.+12     	; 0x3f6a <vfprintf+0x2fe>
    3f5e:	b3 94       	inc	r11
    3f60:	b3 94       	inc	r11
    3f62:	04 c0       	rjmp	.+8      	; 0x3f6c <vfprintf+0x300>
    3f64:	8a 2d       	mov	r24, r10
    3f66:	86 78       	andi	r24, 0x86	; 134
    3f68:	09 f0       	breq	.+2      	; 0x3f6c <vfprintf+0x300>
    3f6a:	b3 94       	inc	r11
    3f6c:	a3 fc       	sbrc	r10, 3
    3f6e:	11 c0       	rjmp	.+34     	; 0x3f92 <vfprintf+0x326>
    3f70:	a0 fe       	sbrs	r10, 0
    3f72:	06 c0       	rjmp	.+12     	; 0x3f80 <vfprintf+0x314>
    3f74:	b2 14       	cp	r11, r2
    3f76:	88 f4       	brcc	.+34     	; 0x3f9a <vfprintf+0x32e>
    3f78:	28 0c       	add	r2, r8
    3f7a:	92 2c       	mov	r9, r2
    3f7c:	9b 18       	sub	r9, r11
    3f7e:	0e c0       	rjmp	.+28     	; 0x3f9c <vfprintf+0x330>
    3f80:	b2 14       	cp	r11, r2
    3f82:	60 f4       	brcc	.+24     	; 0x3f9c <vfprintf+0x330>
    3f84:	b6 01       	movw	r22, r12
    3f86:	80 e2       	ldi	r24, 0x20	; 32
    3f88:	90 e0       	ldi	r25, 0x00	; 0
    3f8a:	0e 94 2d 20 	call	0x405a	; 0x405a <fputc>
    3f8e:	b3 94       	inc	r11
    3f90:	f7 cf       	rjmp	.-18     	; 0x3f80 <vfprintf+0x314>
    3f92:	b2 14       	cp	r11, r2
    3f94:	18 f4       	brcc	.+6      	; 0x3f9c <vfprintf+0x330>
    3f96:	2b 18       	sub	r2, r11
    3f98:	02 c0       	rjmp	.+4      	; 0x3f9e <vfprintf+0x332>
    3f9a:	98 2c       	mov	r9, r8
    3f9c:	21 2c       	mov	r2, r1
    3f9e:	a4 fe       	sbrs	r10, 4
    3fa0:	10 c0       	rjmp	.+32     	; 0x3fc2 <vfprintf+0x356>
    3fa2:	b6 01       	movw	r22, r12
    3fa4:	80 e3       	ldi	r24, 0x30	; 48
    3fa6:	90 e0       	ldi	r25, 0x00	; 0
    3fa8:	0e 94 2d 20 	call	0x405a	; 0x405a <fputc>
    3fac:	a2 fe       	sbrs	r10, 2
    3fae:	17 c0       	rjmp	.+46     	; 0x3fde <vfprintf+0x372>
    3fb0:	a1 fc       	sbrc	r10, 1
    3fb2:	03 c0       	rjmp	.+6      	; 0x3fba <vfprintf+0x34e>
    3fb4:	88 e7       	ldi	r24, 0x78	; 120
    3fb6:	90 e0       	ldi	r25, 0x00	; 0
    3fb8:	02 c0       	rjmp	.+4      	; 0x3fbe <vfprintf+0x352>
    3fba:	88 e5       	ldi	r24, 0x58	; 88
    3fbc:	90 e0       	ldi	r25, 0x00	; 0
    3fbe:	b6 01       	movw	r22, r12
    3fc0:	0c c0       	rjmp	.+24     	; 0x3fda <vfprintf+0x36e>
    3fc2:	8a 2d       	mov	r24, r10
    3fc4:	86 78       	andi	r24, 0x86	; 134
    3fc6:	59 f0       	breq	.+22     	; 0x3fde <vfprintf+0x372>
    3fc8:	a1 fe       	sbrs	r10, 1
    3fca:	02 c0       	rjmp	.+4      	; 0x3fd0 <vfprintf+0x364>
    3fcc:	8b e2       	ldi	r24, 0x2B	; 43
    3fce:	01 c0       	rjmp	.+2      	; 0x3fd2 <vfprintf+0x366>
    3fd0:	80 e2       	ldi	r24, 0x20	; 32
    3fd2:	a7 fc       	sbrc	r10, 7
    3fd4:	8d e2       	ldi	r24, 0x2D	; 45
    3fd6:	b6 01       	movw	r22, r12
    3fd8:	90 e0       	ldi	r25, 0x00	; 0
    3fda:	0e 94 2d 20 	call	0x405a	; 0x405a <fputc>
    3fde:	89 14       	cp	r8, r9
    3fe0:	38 f4       	brcc	.+14     	; 0x3ff0 <vfprintf+0x384>
    3fe2:	b6 01       	movw	r22, r12
    3fe4:	80 e3       	ldi	r24, 0x30	; 48
    3fe6:	90 e0       	ldi	r25, 0x00	; 0
    3fe8:	0e 94 2d 20 	call	0x405a	; 0x405a <fputc>
    3fec:	9a 94       	dec	r9
    3fee:	f7 cf       	rjmp	.-18     	; 0x3fde <vfprintf+0x372>
    3ff0:	8a 94       	dec	r8
    3ff2:	f3 01       	movw	r30, r6
    3ff4:	e8 0d       	add	r30, r8
    3ff6:	f1 1d       	adc	r31, r1
    3ff8:	80 81       	ld	r24, Z
    3ffa:	b6 01       	movw	r22, r12
    3ffc:	90 e0       	ldi	r25, 0x00	; 0
    3ffe:	0e 94 2d 20 	call	0x405a	; 0x405a <fputc>
    4002:	81 10       	cpse	r8, r1
    4004:	f5 cf       	rjmp	.-22     	; 0x3ff0 <vfprintf+0x384>
    4006:	22 20       	and	r2, r2
    4008:	09 f4       	brne	.+2      	; 0x400c <vfprintf+0x3a0>
    400a:	42 ce       	rjmp	.-892    	; 0x3c90 <vfprintf+0x24>
    400c:	b6 01       	movw	r22, r12
    400e:	80 e2       	ldi	r24, 0x20	; 32
    4010:	90 e0       	ldi	r25, 0x00	; 0
    4012:	0e 94 2d 20 	call	0x405a	; 0x405a <fputc>
    4016:	2a 94       	dec	r2
    4018:	f6 cf       	rjmp	.-20     	; 0x4006 <vfprintf+0x39a>
    401a:	f6 01       	movw	r30, r12
    401c:	86 81       	ldd	r24, Z+6	; 0x06
    401e:	97 81       	ldd	r25, Z+7	; 0x07
    4020:	02 c0       	rjmp	.+4      	; 0x4026 <vfprintf+0x3ba>
    4022:	8f ef       	ldi	r24, 0xFF	; 255
    4024:	9f ef       	ldi	r25, 0xFF	; 255
    4026:	2b 96       	adiw	r28, 0x0b	; 11
    4028:	e2 e1       	ldi	r30, 0x12	; 18
    402a:	0c 94 e3 20 	jmp	0x41c6	; 0x41c6 <__epilogue_restores__>

0000402e <strnlen_P>:
    402e:	fc 01       	movw	r30, r24
    4030:	05 90       	lpm	r0, Z+
    4032:	61 50       	subi	r22, 0x01	; 1
    4034:	70 40       	sbci	r23, 0x00	; 0
    4036:	01 10       	cpse	r0, r1
    4038:	d8 f7       	brcc	.-10     	; 0x4030 <strnlen_P+0x2>
    403a:	80 95       	com	r24
    403c:	90 95       	com	r25
    403e:	8e 0f       	add	r24, r30
    4040:	9f 1f       	adc	r25, r31
    4042:	08 95       	ret

00004044 <strnlen>:
    4044:	fc 01       	movw	r30, r24
    4046:	61 50       	subi	r22, 0x01	; 1
    4048:	70 40       	sbci	r23, 0x00	; 0
    404a:	01 90       	ld	r0, Z+
    404c:	01 10       	cpse	r0, r1
    404e:	d8 f7       	brcc	.-10     	; 0x4046 <strnlen+0x2>
    4050:	80 95       	com	r24
    4052:	90 95       	com	r25
    4054:	8e 0f       	add	r24, r30
    4056:	9f 1f       	adc	r25, r31
    4058:	08 95       	ret

0000405a <fputc>:
    405a:	0f 93       	push	r16
    405c:	1f 93       	push	r17
    405e:	cf 93       	push	r28
    4060:	df 93       	push	r29
    4062:	fb 01       	movw	r30, r22
    4064:	23 81       	ldd	r18, Z+3	; 0x03
    4066:	21 fd       	sbrc	r18, 1
    4068:	03 c0       	rjmp	.+6      	; 0x4070 <fputc+0x16>
    406a:	8f ef       	ldi	r24, 0xFF	; 255
    406c:	9f ef       	ldi	r25, 0xFF	; 255
    406e:	2c c0       	rjmp	.+88     	; 0x40c8 <fputc+0x6e>
    4070:	22 ff       	sbrs	r18, 2
    4072:	16 c0       	rjmp	.+44     	; 0x40a0 <fputc+0x46>
    4074:	46 81       	ldd	r20, Z+6	; 0x06
    4076:	57 81       	ldd	r21, Z+7	; 0x07
    4078:	24 81       	ldd	r18, Z+4	; 0x04
    407a:	35 81       	ldd	r19, Z+5	; 0x05
    407c:	42 17       	cp	r20, r18
    407e:	53 07       	cpc	r21, r19
    4080:	44 f4       	brge	.+16     	; 0x4092 <fputc+0x38>
    4082:	a0 81       	ld	r26, Z
    4084:	b1 81       	ldd	r27, Z+1	; 0x01
    4086:	9d 01       	movw	r18, r26
    4088:	2f 5f       	subi	r18, 0xFF	; 255
    408a:	3f 4f       	sbci	r19, 0xFF	; 255
    408c:	31 83       	std	Z+1, r19	; 0x01
    408e:	20 83       	st	Z, r18
    4090:	8c 93       	st	X, r24
    4092:	26 81       	ldd	r18, Z+6	; 0x06
    4094:	37 81       	ldd	r19, Z+7	; 0x07
    4096:	2f 5f       	subi	r18, 0xFF	; 255
    4098:	3f 4f       	sbci	r19, 0xFF	; 255
    409a:	37 83       	std	Z+7, r19	; 0x07
    409c:	26 83       	std	Z+6, r18	; 0x06
    409e:	14 c0       	rjmp	.+40     	; 0x40c8 <fputc+0x6e>
    40a0:	8b 01       	movw	r16, r22
    40a2:	ec 01       	movw	r28, r24
    40a4:	fb 01       	movw	r30, r22
    40a6:	00 84       	ldd	r0, Z+8	; 0x08
    40a8:	f1 85       	ldd	r31, Z+9	; 0x09
    40aa:	e0 2d       	mov	r30, r0
    40ac:	09 95       	icall
    40ae:	89 2b       	or	r24, r25
    40b0:	e1 f6       	brne	.-72     	; 0x406a <fputc+0x10>
    40b2:	d8 01       	movw	r26, r16
    40b4:	16 96       	adiw	r26, 0x06	; 6
    40b6:	8d 91       	ld	r24, X+
    40b8:	9c 91       	ld	r25, X
    40ba:	17 97       	sbiw	r26, 0x07	; 7
    40bc:	01 96       	adiw	r24, 0x01	; 1
    40be:	17 96       	adiw	r26, 0x07	; 7
    40c0:	9c 93       	st	X, r25
    40c2:	8e 93       	st	-X, r24
    40c4:	16 97       	sbiw	r26, 0x06	; 6
    40c6:	ce 01       	movw	r24, r28
    40c8:	df 91       	pop	r29
    40ca:	cf 91       	pop	r28
    40cc:	1f 91       	pop	r17
    40ce:	0f 91       	pop	r16
    40d0:	08 95       	ret

000040d2 <__ultoa_invert>:
    40d2:	fa 01       	movw	r30, r20
    40d4:	aa 27       	eor	r26, r26
    40d6:	28 30       	cpi	r18, 0x08	; 8
    40d8:	51 f1       	breq	.+84     	; 0x412e <__ultoa_invert+0x5c>
    40da:	20 31       	cpi	r18, 0x10	; 16
    40dc:	81 f1       	breq	.+96     	; 0x413e <__ultoa_invert+0x6c>
    40de:	e8 94       	clt
    40e0:	6f 93       	push	r22
    40e2:	6e 7f       	andi	r22, 0xFE	; 254
    40e4:	6e 5f       	subi	r22, 0xFE	; 254
    40e6:	7f 4f       	sbci	r23, 0xFF	; 255
    40e8:	8f 4f       	sbci	r24, 0xFF	; 255
    40ea:	9f 4f       	sbci	r25, 0xFF	; 255
    40ec:	af 4f       	sbci	r26, 0xFF	; 255
    40ee:	b1 e0       	ldi	r27, 0x01	; 1
    40f0:	3e d0       	rcall	.+124    	; 0x416e <__ultoa_invert+0x9c>
    40f2:	b4 e0       	ldi	r27, 0x04	; 4
    40f4:	3c d0       	rcall	.+120    	; 0x416e <__ultoa_invert+0x9c>
    40f6:	67 0f       	add	r22, r23
    40f8:	78 1f       	adc	r23, r24
    40fa:	89 1f       	adc	r24, r25
    40fc:	9a 1f       	adc	r25, r26
    40fe:	a1 1d       	adc	r26, r1
    4100:	68 0f       	add	r22, r24
    4102:	79 1f       	adc	r23, r25
    4104:	8a 1f       	adc	r24, r26
    4106:	91 1d       	adc	r25, r1
    4108:	a1 1d       	adc	r26, r1
    410a:	6a 0f       	add	r22, r26
    410c:	71 1d       	adc	r23, r1
    410e:	81 1d       	adc	r24, r1
    4110:	91 1d       	adc	r25, r1
    4112:	a1 1d       	adc	r26, r1
    4114:	20 d0       	rcall	.+64     	; 0x4156 <__ultoa_invert+0x84>
    4116:	09 f4       	brne	.+2      	; 0x411a <__ultoa_invert+0x48>
    4118:	68 94       	set
    411a:	3f 91       	pop	r19
    411c:	2a e0       	ldi	r18, 0x0A	; 10
    411e:	26 9f       	mul	r18, r22
    4120:	11 24       	eor	r1, r1
    4122:	30 19       	sub	r19, r0
    4124:	30 5d       	subi	r19, 0xD0	; 208
    4126:	31 93       	st	Z+, r19
    4128:	de f6       	brtc	.-74     	; 0x40e0 <__ultoa_invert+0xe>
    412a:	cf 01       	movw	r24, r30
    412c:	08 95       	ret
    412e:	46 2f       	mov	r20, r22
    4130:	47 70       	andi	r20, 0x07	; 7
    4132:	40 5d       	subi	r20, 0xD0	; 208
    4134:	41 93       	st	Z+, r20
    4136:	b3 e0       	ldi	r27, 0x03	; 3
    4138:	0f d0       	rcall	.+30     	; 0x4158 <__ultoa_invert+0x86>
    413a:	c9 f7       	brne	.-14     	; 0x412e <__ultoa_invert+0x5c>
    413c:	f6 cf       	rjmp	.-20     	; 0x412a <__ultoa_invert+0x58>
    413e:	46 2f       	mov	r20, r22
    4140:	4f 70       	andi	r20, 0x0F	; 15
    4142:	40 5d       	subi	r20, 0xD0	; 208
    4144:	4a 33       	cpi	r20, 0x3A	; 58
    4146:	18 f0       	brcs	.+6      	; 0x414e <__ultoa_invert+0x7c>
    4148:	49 5d       	subi	r20, 0xD9	; 217
    414a:	31 fd       	sbrc	r19, 1
    414c:	40 52       	subi	r20, 0x20	; 32
    414e:	41 93       	st	Z+, r20
    4150:	02 d0       	rcall	.+4      	; 0x4156 <__ultoa_invert+0x84>
    4152:	a9 f7       	brne	.-22     	; 0x413e <__ultoa_invert+0x6c>
    4154:	ea cf       	rjmp	.-44     	; 0x412a <__ultoa_invert+0x58>
    4156:	b4 e0       	ldi	r27, 0x04	; 4
    4158:	a6 95       	lsr	r26
    415a:	97 95       	ror	r25
    415c:	87 95       	ror	r24
    415e:	77 95       	ror	r23
    4160:	67 95       	ror	r22
    4162:	ba 95       	dec	r27
    4164:	c9 f7       	brne	.-14     	; 0x4158 <__ultoa_invert+0x86>
    4166:	00 97       	sbiw	r24, 0x00	; 0
    4168:	61 05       	cpc	r22, r1
    416a:	71 05       	cpc	r23, r1
    416c:	08 95       	ret
    416e:	9b 01       	movw	r18, r22
    4170:	ac 01       	movw	r20, r24
    4172:	0a 2e       	mov	r0, r26
    4174:	06 94       	lsr	r0
    4176:	57 95       	ror	r21
    4178:	47 95       	ror	r20
    417a:	37 95       	ror	r19
    417c:	27 95       	ror	r18
    417e:	ba 95       	dec	r27
    4180:	c9 f7       	brne	.-14     	; 0x4174 <__ultoa_invert+0xa2>
    4182:	62 0f       	add	r22, r18
    4184:	73 1f       	adc	r23, r19
    4186:	84 1f       	adc	r24, r20
    4188:	95 1f       	adc	r25, r21
    418a:	a0 1d       	adc	r26, r0
    418c:	08 95       	ret

0000418e <__prologue_saves__>:
    418e:	2f 92       	push	r2
    4190:	3f 92       	push	r3
    4192:	4f 92       	push	r4
    4194:	5f 92       	push	r5
    4196:	6f 92       	push	r6
    4198:	7f 92       	push	r7
    419a:	8f 92       	push	r8
    419c:	9f 92       	push	r9
    419e:	af 92       	push	r10
    41a0:	bf 92       	push	r11
    41a2:	cf 92       	push	r12
    41a4:	df 92       	push	r13
    41a6:	ef 92       	push	r14
    41a8:	ff 92       	push	r15
    41aa:	0f 93       	push	r16
    41ac:	1f 93       	push	r17
    41ae:	cf 93       	push	r28
    41b0:	df 93       	push	r29
    41b2:	cd b7       	in	r28, 0x3d	; 61
    41b4:	de b7       	in	r29, 0x3e	; 62
    41b6:	ca 1b       	sub	r28, r26
    41b8:	db 0b       	sbc	r29, r27
    41ba:	0f b6       	in	r0, 0x3f	; 63
    41bc:	f8 94       	cli
    41be:	de bf       	out	0x3e, r29	; 62
    41c0:	0f be       	out	0x3f, r0	; 63
    41c2:	cd bf       	out	0x3d, r28	; 61
    41c4:	09 94       	ijmp

000041c6 <__epilogue_restores__>:
    41c6:	2a 88       	ldd	r2, Y+18	; 0x12
    41c8:	39 88       	ldd	r3, Y+17	; 0x11
    41ca:	48 88       	ldd	r4, Y+16	; 0x10
    41cc:	5f 84       	ldd	r5, Y+15	; 0x0f
    41ce:	6e 84       	ldd	r6, Y+14	; 0x0e
    41d0:	7d 84       	ldd	r7, Y+13	; 0x0d
    41d2:	8c 84       	ldd	r8, Y+12	; 0x0c
    41d4:	9b 84       	ldd	r9, Y+11	; 0x0b
    41d6:	aa 84       	ldd	r10, Y+10	; 0x0a
    41d8:	b9 84       	ldd	r11, Y+9	; 0x09
    41da:	c8 84       	ldd	r12, Y+8	; 0x08
    41dc:	df 80       	ldd	r13, Y+7	; 0x07
    41de:	ee 80       	ldd	r14, Y+6	; 0x06
    41e0:	fd 80       	ldd	r15, Y+5	; 0x05
    41e2:	0c 81       	ldd	r16, Y+4	; 0x04
    41e4:	1b 81       	ldd	r17, Y+3	; 0x03
    41e6:	aa 81       	ldd	r26, Y+2	; 0x02
    41e8:	b9 81       	ldd	r27, Y+1	; 0x01
    41ea:	ce 0f       	add	r28, r30
    41ec:	d1 1d       	adc	r29, r1
    41ee:	0f b6       	in	r0, 0x3f	; 63
    41f0:	f8 94       	cli
    41f2:	de bf       	out	0x3e, r29	; 62
    41f4:	0f be       	out	0x3f, r0	; 63
    41f6:	cd bf       	out	0x3d, r28	; 61
    41f8:	ed 01       	movw	r28, r26
    41fa:	08 95       	ret

000041fc <_exit>:
    41fc:	f8 94       	cli

000041fe <__stop_program>:
    41fe:	ff cf       	rjmp	.-2      	; 0x41fe <__stop_program>
